
timer_pwm.elf:     file format elf32-littlearm

Sections:
Idx Name          Size      VMA       LMA       File off  Algn
  0 .text         00002978  00000000  00000000  00010000  2**2
                  CONTENTS, ALLOC, LOAD, READONLY, CODE
  1 .relocate     00000020  20000000  00002978  00020000  2**2
                  CONTENTS, ALLOC, LOAD, DATA
  2 .bss          00000224  20000020  00002998  00020020  2**2
                  ALLOC
  3 .stack        00000404  20000244  00002bbc  00020020  2**0
                  ALLOC
  4 .ARM.attributes 0000002a  00000000  00000000  00020020  2**0
                  CONTENTS, READONLY
  5 .comment      00000059  00000000  00000000  0002004a  2**0
                  CONTENTS, READONLY
  6 .debug_info   00056f64  00000000  00000000  000200a3  2**0
                  CONTENTS, READONLY, DEBUGGING
  7 .debug_abbrev 00005feb  00000000  00000000  00077007  2**0
                  CONTENTS, READONLY, DEBUGGING
  8 .debug_loc    00006b71  00000000  00000000  0007cff2  2**0
                  CONTENTS, READONLY, DEBUGGING
  9 .debug_aranges 00000868  00000000  00000000  00083b63  2**0
                  CONTENTS, READONLY, DEBUGGING
 10 .debug_ranges 00000db0  00000000  00000000  000843cb  2**0
                  CONTENTS, READONLY, DEBUGGING
 11 .debug_macro  0001b45c  00000000  00000000  0008517b  2**0
                  CONTENTS, READONLY, DEBUGGING
 12 .debug_line   00015471  00000000  00000000  000a05d7  2**0
                  CONTENTS, READONLY, DEBUGGING
 13 .debug_str    0007d1fd  00000000  00000000  000b5a48  2**0
                  CONTENTS, READONLY, DEBUGGING
 14 .debug_frame  00001448  00000000  00000000  00132c48  2**2
                  CONTENTS, READONLY, DEBUGGING

Disassembly of section .text:

00000000 <exception_table>:
       0:	48 06 00 20 4d 22 00 00 4b 22 00 00 4b 22 00 00     H.. M"..K"..K"..
	...
      2c:	4b 22 00 00 00 00 00 00 00 00 00 00 4b 22 00 00     K"..........K"..
      3c:	4b 22 00 00 4b 22 00 00 4b 22 00 00 4b 22 00 00     K"..K"..K"..K"..
      4c:	4b 22 00 00 39 05 00 00 4b 22 00 00 4b 22 00 00     K"..9...K"..K"..
      5c:	4b 22 00 00 4b 22 00 00 c9 15 00 00 d9 15 00 00     K"..K"..........
      6c:	e9 15 00 00 15 1f 00 00 a1 1f 00 00 ab 1f 00 00     ................
      7c:	4b 22 00 00 4b 22 00 00 4b 22 00 00 4b 22 00 00     K"..K"..K"..K"..

0000008c <__do_global_dtors_aux>:
      8c:	b510      	push	{r4, lr}
      8e:	4c06      	ldr	r4, [pc, #24]	; (a8 <__do_global_dtors_aux+0x1c>)
      90:	7823      	ldrb	r3, [r4, #0]
      92:	2b00      	cmp	r3, #0
      94:	d107      	bne.n	a6 <__do_global_dtors_aux+0x1a>
      96:	4b05      	ldr	r3, [pc, #20]	; (ac <__do_global_dtors_aux+0x20>)
      98:	2b00      	cmp	r3, #0
      9a:	d002      	beq.n	a2 <__do_global_dtors_aux+0x16>
      9c:	4804      	ldr	r0, [pc, #16]	; (b0 <__do_global_dtors_aux+0x24>)
      9e:	e000      	b.n	a2 <__do_global_dtors_aux+0x16>
      a0:	bf00      	nop
      a2:	2301      	movs	r3, #1
      a4:	7023      	strb	r3, [r4, #0]
      a6:	bd10      	pop	{r4, pc}
      a8:	20000020 	.word	0x20000020
      ac:	00000000 	.word	0x00000000
      b0:	00002978 	.word	0x00002978

000000b4 <frame_dummy>:
      b4:	4b08      	ldr	r3, [pc, #32]	; (d8 <frame_dummy+0x24>)
      b6:	b510      	push	{r4, lr}
      b8:	2b00      	cmp	r3, #0
      ba:	d003      	beq.n	c4 <frame_dummy+0x10>
      bc:	4907      	ldr	r1, [pc, #28]	; (dc <frame_dummy+0x28>)
      be:	4808      	ldr	r0, [pc, #32]	; (e0 <frame_dummy+0x2c>)
      c0:	e000      	b.n	c4 <frame_dummy+0x10>
      c2:	bf00      	nop
      c4:	4807      	ldr	r0, [pc, #28]	; (e4 <frame_dummy+0x30>)
      c6:	6803      	ldr	r3, [r0, #0]
      c8:	2b00      	cmp	r3, #0
      ca:	d100      	bne.n	ce <frame_dummy+0x1a>
      cc:	bd10      	pop	{r4, pc}
      ce:	4b06      	ldr	r3, [pc, #24]	; (e8 <frame_dummy+0x34>)
      d0:	2b00      	cmp	r3, #0
      d2:	d0fb      	beq.n	cc <frame_dummy+0x18>
      d4:	4798      	blx	r3
      d6:	e7f9      	b.n	cc <frame_dummy+0x18>
      d8:	00000000 	.word	0x00000000
      dc:	20000024 	.word	0x20000024
      e0:	00002978 	.word	0x00002978
      e4:	00002978 	.word	0x00002978
      e8:	00000000 	.word	0x00000000

000000ec <adc_get_status.isra.1>:
      ec:	7e03      	ldrb	r3, [r0, #24]
      ee:	2001      	movs	r0, #1
      f0:	b2db      	uxtb	r3, r3
      f2:	4018      	ands	r0, r3
      f4:	2202      	movs	r2, #2
      f6:	0759      	lsls	r1, r3, #29
      f8:	d500      	bpl.n	fc <adc_get_status.isra.1+0x10>
      fa:	4310      	orrs	r0, r2
      fc:	4213      	tst	r3, r2
      fe:	d001      	beq.n	104 <adc_get_status.isra.1+0x18>
     100:	2304      	movs	r3, #4
     102:	4318      	orrs	r0, r3
     104:	4770      	bx	lr
	...

00000108 <configure_adc>:
     108:	b510      	push	{r4, lr}
     10a:	b08c      	sub	sp, #48	; 0x30
     10c:	4668      	mov	r0, sp
     10e:	f000 f865 	bl	1dc <adc_get_config_defaults>
     112:	4c0c      	ldr	r4, [pc, #48]	; (144 <configure_adc+0x3c>)
     114:	466a      	mov	r2, sp
     116:	490c      	ldr	r1, [pc, #48]	; (148 <configure_adc+0x40>)
     118:	0020      	movs	r0, r4
     11a:	f000 f881 	bl	220 <adc_init>
     11e:	6823      	ldr	r3, [r4, #0]
     120:	7e5a      	ldrb	r2, [r3, #25]
     122:	b252      	sxtb	r2, r2
     124:	2a00      	cmp	r2, #0
     126:	dbfb      	blt.n	120 <configure_adc+0x18>
     128:	220f      	movs	r2, #15
     12a:	759a      	strb	r2, [r3, #22]
     12c:	761a      	strb	r2, [r3, #24]
     12e:	7819      	ldrb	r1, [r3, #0]
     130:	3a0d      	subs	r2, #13
     132:	430a      	orrs	r2, r1
     134:	701a      	strb	r2, [r3, #0]
     136:	6822      	ldr	r2, [r4, #0]
     138:	7e53      	ldrb	r3, [r2, #25]
     13a:	b25b      	sxtb	r3, r3
     13c:	2b00      	cmp	r3, #0
     13e:	dbfb      	blt.n	138 <configure_adc+0x30>
     140:	b00c      	add	sp, #48	; 0x30
     142:	bd10      	pop	{r4, pc}
     144:	20000098 	.word	0x20000098
     148:	42002000 	.word	0x42002000

0000014c <sample_adc>:
     14c:	b570      	push	{r4, r5, r6, lr}
     14e:	4c13      	ldr	r4, [pc, #76]	; (19c <sample_adc+0x50>)
     150:	6823      	ldr	r3, [r4, #0]
     152:	7e5a      	ldrb	r2, [r3, #25]
     154:	b252      	sxtb	r2, r2
     156:	2a00      	cmp	r2, #0
     158:	dbfb      	blt.n	152 <sample_adc+0x6>
     15a:	2202      	movs	r2, #2
     15c:	7b19      	ldrb	r1, [r3, #12]
     15e:	430a      	orrs	r2, r1
     160:	731a      	strb	r2, [r3, #12]
     162:	7e5a      	ldrb	r2, [r3, #25]
     164:	b252      	sxtb	r2, r2
     166:	2a00      	cmp	r2, #0
     168:	dbfb      	blt.n	162 <sample_adc+0x16>
     16a:	2501      	movs	r5, #1
     16c:	6820      	ldr	r0, [r4, #0]
     16e:	f7ff ffbd 	bl	ec <adc_get_status.isra.1>
     172:	4228      	tst	r0, r5
     174:	d0fa      	beq.n	16c <sample_adc+0x20>
     176:	6820      	ldr	r0, [r4, #0]
     178:	7e43      	ldrb	r3, [r0, #25]
     17a:	b25b      	sxtb	r3, r3
     17c:	2b00      	cmp	r3, #0
     17e:	dbfb      	blt.n	178 <sample_adc+0x2c>
     180:	8b42      	ldrh	r2, [r0, #26]
     182:	4b07      	ldr	r3, [pc, #28]	; (1a0 <sample_adc+0x54>)
     184:	801a      	strh	r2, [r3, #0]
     186:	2301      	movs	r3, #1
     188:	7603      	strb	r3, [r0, #24]
     18a:	f7ff ffaf 	bl	ec <adc_get_status.isra.1>
     18e:	0743      	lsls	r3, r0, #29
     190:	d502      	bpl.n	198 <sample_adc+0x4c>
     192:	2202      	movs	r2, #2
     194:	6823      	ldr	r3, [r4, #0]
     196:	761a      	strb	r2, [r3, #24]
     198:	bd70      	pop	{r4, r5, r6, pc}
     19a:	46c0      	nop			; (mov r8, r8)
     19c:	20000098 	.word	0x20000098
     1a0:	20000094 	.word	0x20000094

000001a4 <_adc_configure_ain_pin>:
     1a4:	b530      	push	{r4, r5, lr}
     1a6:	b097      	sub	sp, #92	; 0x5c
     1a8:	ad02      	add	r5, sp, #8
     1aa:	0004      	movs	r4, r0
     1ac:	2250      	movs	r2, #80	; 0x50
     1ae:	490a      	ldr	r1, [pc, #40]	; (1d8 <_adc_configure_ain_pin+0x34>)
     1b0:	0028      	movs	r0, r5
     1b2:	f002 fb6b 	bl	288c <memcpy>
     1b6:	2c09      	cmp	r4, #9
     1b8:	d80b      	bhi.n	1d2 <_adc_configure_ain_pin+0x2e>
     1ba:	2300      	movs	r3, #0
     1bc:	00a4      	lsls	r4, r4, #2
     1be:	5960      	ldr	r0, [r4, r5]
     1c0:	a901      	add	r1, sp, #4
     1c2:	704b      	strb	r3, [r1, #1]
     1c4:	70cb      	strb	r3, [r1, #3]
     1c6:	708b      	strb	r3, [r1, #2]
     1c8:	b2c0      	uxtb	r0, r0
     1ca:	3301      	adds	r3, #1
     1cc:	700b      	strb	r3, [r1, #0]
     1ce:	f001 fc63 	bl	1a98 <system_pinmux_pin_set_config>
     1d2:	b017      	add	sp, #92	; 0x5c
     1d4:	bd30      	pop	{r4, r5, pc}
     1d6:	46c0      	nop			; (mov r8, r8)
     1d8:	000028a0 	.word	0x000028a0

000001dc <adc_get_config_defaults>:
     1dc:	22c0      	movs	r2, #192	; 0xc0
     1de:	0152      	lsls	r2, r2, #5
     1e0:	81c2      	strh	r2, [r0, #14]
     1e2:	0002      	movs	r2, r0
     1e4:	2300      	movs	r3, #0
     1e6:	322a      	adds	r2, #42	; 0x2a
     1e8:	7003      	strb	r3, [r0, #0]
     1ea:	7043      	strb	r3, [r0, #1]
     1ec:	8043      	strh	r3, [r0, #2]
     1ee:	7103      	strb	r3, [r0, #4]
     1f0:	7603      	strb	r3, [r0, #24]
     1f2:	6203      	str	r3, [r0, #32]
     1f4:	61c3      	str	r3, [r0, #28]
     1f6:	6083      	str	r3, [r0, #8]
     1f8:	7303      	strb	r3, [r0, #12]
     1fa:	7403      	strb	r3, [r0, #16]
     1fc:	7443      	strb	r3, [r0, #17]
     1fe:	7483      	strb	r3, [r0, #18]
     200:	74c3      	strb	r3, [r0, #19]
     202:	7503      	strb	r3, [r0, #20]
     204:	7013      	strb	r3, [r2, #0]
     206:	1d42      	adds	r2, r0, #5
     208:	7543      	strb	r3, [r0, #21]
     20a:	7583      	strb	r3, [r0, #22]
     20c:	77d3      	strb	r3, [r2, #31]
     20e:	84c3      	strh	r3, [r0, #38]	; 0x26
     210:	8503      	strh	r3, [r0, #40]	; 0x28
     212:	75c3      	strb	r3, [r0, #23]
     214:	3226      	adds	r2, #38	; 0x26
     216:	302c      	adds	r0, #44	; 0x2c
     218:	7013      	strb	r3, [r2, #0]
     21a:	7003      	strb	r3, [r0, #0]
     21c:	4770      	bx	lr
	...

00000220 <adc_init>:
     220:	2380      	movs	r3, #128	; 0x80
     222:	b5f0      	push	{r4, r5, r6, r7, lr}
     224:	0014      	movs	r4, r2
     226:	4aab      	ldr	r2, [pc, #684]	; (4d4 <STACK_SIZE+0xd4>)
     228:	6001      	str	r1, [r0, #0]
     22a:	0007      	movs	r7, r0
     22c:	6a10      	ldr	r0, [r2, #32]
     22e:	005b      	lsls	r3, r3, #1
     230:	4303      	orrs	r3, r0
     232:	6213      	str	r3, [r2, #32]
     234:	780b      	ldrb	r3, [r1, #0]
     236:	b087      	sub	sp, #28
     238:	2005      	movs	r0, #5
     23a:	07db      	lsls	r3, r3, #31
     23c:	d500      	bpl.n	240 <adc_init+0x20>
     23e:	e0e5      	b.n	40c <STACK_SIZE+0xc>
     240:	780b      	ldrb	r3, [r1, #0]
     242:	3017      	adds	r0, #23
     244:	079b      	lsls	r3, r3, #30
     246:	d500      	bpl.n	24a <adc_init+0x2a>
     248:	e0e0      	b.n	40c <STACK_SIZE+0xc>
     24a:	7863      	ldrb	r3, [r4, #1]
     24c:	713b      	strb	r3, [r7, #4]
     24e:	2b00      	cmp	r3, #0
     250:	d104      	bne.n	25c <adc_init+0x3c>
     252:	4aa1      	ldr	r2, [pc, #644]	; (4d8 <STACK_SIZE+0xd8>)
     254:	3304      	adds	r3, #4
     256:	6c11      	ldr	r1, [r2, #64]	; 0x40
     258:	430b      	orrs	r3, r1
     25a:	6413      	str	r3, [r2, #64]	; 0x40
     25c:	7823      	ldrb	r3, [r4, #0]
     25e:	a905      	add	r1, sp, #20
     260:	2013      	movs	r0, #19
     262:	700b      	strb	r3, [r1, #0]
     264:	683d      	ldr	r5, [r7, #0]
     266:	f001 fbb5 	bl	19d4 <system_gclk_chan_set_config>
     26a:	2013      	movs	r0, #19
     26c:	f001 fb76 	bl	195c <system_gclk_chan_enable>
     270:	0023      	movs	r3, r4
     272:	332c      	adds	r3, #44	; 0x2c
     274:	9302      	str	r3, [sp, #8]
     276:	781b      	ldrb	r3, [r3, #0]
     278:	7b22      	ldrb	r2, [r4, #12]
     27a:	9201      	str	r2, [sp, #4]
     27c:	2b00      	cmp	r3, #0
     27e:	d033      	beq.n	2e8 <adc_init+0xc8>
     280:	0022      	movs	r2, r4
     282:	322b      	adds	r2, #43	; 0x2b
     284:	7816      	ldrb	r6, [r2, #0]
     286:	9a01      	ldr	r2, [sp, #4]
     288:	1996      	adds	r6, r2, r6
     28a:	b2f6      	uxtb	r6, r6
     28c:	199b      	adds	r3, r3, r6
     28e:	b2db      	uxtb	r3, r3
     290:	9303      	str	r3, [sp, #12]
     292:	9b01      	ldr	r3, [sp, #4]
     294:	1af0      	subs	r0, r6, r3
     296:	9b03      	ldr	r3, [sp, #12]
     298:	b2c0      	uxtb	r0, r0
     29a:	42b3      	cmp	r3, r6
     29c:	d81b      	bhi.n	2d6 <adc_init+0xb6>
     29e:	89e0      	ldrh	r0, [r4, #14]
     2a0:	f7ff ff80 	bl	1a4 <_adc_configure_ain_pin>
     2a4:	7d63      	ldrb	r3, [r4, #21]
     2a6:	009b      	lsls	r3, r3, #2
     2a8:	b2db      	uxtb	r3, r3
     2aa:	702b      	strb	r3, [r5, #0]
     2ac:	7da3      	ldrb	r3, [r4, #22]
     2ae:	7862      	ldrb	r2, [r4, #1]
     2b0:	01db      	lsls	r3, r3, #7
     2b2:	4313      	orrs	r3, r2
     2b4:	b2db      	uxtb	r3, r3
     2b6:	706b      	strb	r3, [r5, #1]
     2b8:	7923      	ldrb	r3, [r4, #4]
     2ba:	2b30      	cmp	r3, #48	; 0x30
     2bc:	d100      	bne.n	2c0 <adc_init+0xa0>
     2be:	e0b2      	b.n	426 <STACK_SIZE+0x26>
     2c0:	d816      	bhi.n	2f0 <adc_init+0xd0>
     2c2:	2b10      	cmp	r3, #16
     2c4:	d100      	bne.n	2c8 <adc_init+0xa8>
     2c6:	e0ab      	b.n	420 <STACK_SIZE+0x20>
     2c8:	2b20      	cmp	r3, #32
     2ca:	d100      	bne.n	2ce <adc_init+0xae>
     2cc:	e0ab      	b.n	426 <STACK_SIZE+0x26>
     2ce:	2b00      	cmp	r3, #0
     2d0:	d118      	bne.n	304 <adc_init+0xe4>
     2d2:	001a      	movs	r2, r3
     2d4:	e0a5      	b.n	422 <STACK_SIZE+0x22>
     2d6:	230f      	movs	r3, #15
     2d8:	4018      	ands	r0, r3
     2da:	7b23      	ldrb	r3, [r4, #12]
     2dc:	3601      	adds	r6, #1
     2de:	18c0      	adds	r0, r0, r3
     2e0:	f7ff ff60 	bl	1a4 <_adc_configure_ain_pin>
     2e4:	b2f6      	uxtb	r6, r6
     2e6:	e7d4      	b.n	292 <adc_init+0x72>
     2e8:	9801      	ldr	r0, [sp, #4]
     2ea:	f7ff ff5b 	bl	1a4 <_adc_configure_ain_pin>
     2ee:	e7d6      	b.n	29e <adc_init+0x7e>
     2f0:	2b32      	cmp	r3, #50	; 0x32
     2f2:	d009      	beq.n	308 <adc_init+0xe8>
     2f4:	d200      	bcs.n	2f8 <adc_init+0xd8>
     2f6:	e098      	b.n	42a <STACK_SIZE+0x2a>
     2f8:	2b33      	cmp	r3, #51	; 0x33
     2fa:	d100      	bne.n	2fe <adc_init+0xde>
     2fc:	e08c      	b.n	418 <STACK_SIZE+0x18>
     2fe:	2b34      	cmp	r3, #52	; 0x34
     300:	d100      	bne.n	304 <adc_init+0xe4>
     302:	e085      	b.n	410 <STACK_SIZE+0x10>
     304:	2017      	movs	r0, #23
     306:	e081      	b.n	40c <STACK_SIZE+0xc>
     308:	2204      	movs	r2, #4
     30a:	2310      	movs	r3, #16
     30c:	2102      	movs	r1, #2
     30e:	2070      	movs	r0, #112	; 0x70
     310:	0109      	lsls	r1, r1, #4
     312:	4001      	ands	r1, r0
     314:	430a      	orrs	r2, r1
     316:	70aa      	strb	r2, [r5, #2]
     318:	7de2      	ldrb	r2, [r4, #23]
     31a:	2a3f      	cmp	r2, #63	; 0x3f
     31c:	d8f2      	bhi.n	304 <adc_init+0xe4>
     31e:	70ea      	strb	r2, [r5, #3]
     320:	6839      	ldr	r1, [r7, #0]
     322:	7e4a      	ldrb	r2, [r1, #25]
     324:	b252      	sxtb	r2, r2
     326:	2a00      	cmp	r2, #0
     328:	dbfb      	blt.n	322 <adc_init+0x102>
     32a:	8861      	ldrh	r1, [r4, #2]
     32c:	7ce2      	ldrb	r2, [r4, #19]
     32e:	430a      	orrs	r2, r1
     330:	1d61      	adds	r1, r4, #5
     332:	7fc8      	ldrb	r0, [r1, #31]
     334:	00c0      	lsls	r0, r0, #3
     336:	4302      	orrs	r2, r0
     338:	7d20      	ldrb	r0, [r4, #20]
     33a:	0080      	lsls	r0, r0, #2
     33c:	4302      	orrs	r2, r0
     33e:	7ca0      	ldrb	r0, [r4, #18]
     340:	0040      	lsls	r0, r0, #1
     342:	4302      	orrs	r2, r0
     344:	431a      	orrs	r2, r3
     346:	80aa      	strh	r2, [r5, #4]
     348:	7e22      	ldrb	r2, [r4, #24]
     34a:	4694      	mov	ip, r2
     34c:	2a00      	cmp	r2, #0
     34e:	d007      	beq.n	360 <adc_init+0x140>
     350:	2b10      	cmp	r3, #16
     352:	d100      	bne.n	356 <adc_init+0x136>
     354:	e0af      	b.n	4b6 <STACK_SIZE+0xb6>
     356:	d900      	bls.n	35a <adc_init+0x13a>
     358:	e069      	b.n	42e <STACK_SIZE+0x2e>
     35a:	2b00      	cmp	r3, #0
     35c:	d100      	bne.n	360 <adc_init+0x140>
     35e:	e09b      	b.n	498 <STACK_SIZE+0x98>
     360:	6838      	ldr	r0, [r7, #0]
     362:	7e43      	ldrb	r3, [r0, #25]
     364:	b25b      	sxtb	r3, r3
     366:	2b00      	cmp	r3, #0
     368:	dbfb      	blt.n	362 <adc_init+0x142>
     36a:	4663      	mov	r3, ip
     36c:	722b      	strb	r3, [r5, #8]
     36e:	683a      	ldr	r2, [r7, #0]
     370:	7e53      	ldrb	r3, [r2, #25]
     372:	b25b      	sxtb	r3, r3
     374:	2b00      	cmp	r3, #0
     376:	dbfb      	blt.n	370 <adc_init+0x150>
     378:	8ba3      	ldrh	r3, [r4, #28]
     37a:	83ab      	strh	r3, [r5, #28]
     37c:	683a      	ldr	r2, [r7, #0]
     37e:	7e53      	ldrb	r3, [r2, #25]
     380:	b25b      	sxtb	r3, r3
     382:	2b00      	cmp	r3, #0
     384:	dbfb      	blt.n	37e <adc_init+0x15e>
     386:	8c23      	ldrh	r3, [r4, #32]
     388:	842b      	strh	r3, [r5, #32]
     38a:	9b02      	ldr	r3, [sp, #8]
     38c:	781a      	ldrb	r2, [r3, #0]
     38e:	2a00      	cmp	r2, #0
     390:	d003      	beq.n	39a <adc_init+0x17a>
     392:	3a01      	subs	r2, #1
     394:	b2d2      	uxtb	r2, r2
     396:	2a0f      	cmp	r2, #15
     398:	d8b4      	bhi.n	304 <adc_init+0xe4>
     39a:	0023      	movs	r3, r4
     39c:	332b      	adds	r3, #43	; 0x2b
     39e:	7818      	ldrb	r0, [r3, #0]
     3a0:	280f      	cmp	r0, #15
     3a2:	d8af      	bhi.n	304 <adc_init+0xe4>
     3a4:	683e      	ldr	r6, [r7, #0]
     3a6:	7e73      	ldrb	r3, [r6, #25]
     3a8:	b25b      	sxtb	r3, r3
     3aa:	2b00      	cmp	r3, #0
     3ac:	dbfb      	blt.n	3a6 <adc_init+0x186>
     3ae:	7b26      	ldrb	r6, [r4, #12]
     3b0:	89e3      	ldrh	r3, [r4, #14]
     3b2:	0500      	lsls	r0, r0, #20
     3b4:	4333      	orrs	r3, r6
     3b6:	68a6      	ldr	r6, [r4, #8]
     3b8:	0412      	lsls	r2, r2, #16
     3ba:	4333      	orrs	r3, r6
     3bc:	4303      	orrs	r3, r0
     3be:	4313      	orrs	r3, r2
     3c0:	612b      	str	r3, [r5, #16]
     3c2:	0023      	movs	r3, r4
     3c4:	332a      	adds	r3, #42	; 0x2a
     3c6:	781b      	ldrb	r3, [r3, #0]
     3c8:	752b      	strb	r3, [r5, #20]
     3ca:	230f      	movs	r3, #15
     3cc:	75ab      	strb	r3, [r5, #22]
     3ce:	7fcb      	ldrb	r3, [r1, #31]
     3d0:	2b00      	cmp	r3, #0
     3d2:	d00c      	beq.n	3ee <adc_init+0x1ce>
     3d4:	8ce3      	ldrh	r3, [r4, #38]	; 0x26
     3d6:	4941      	ldr	r1, [pc, #260]	; (4dc <STACK_SIZE+0xdc>)
     3d8:	428b      	cmp	r3, r1
     3da:	d893      	bhi.n	304 <adc_init+0xe4>
     3dc:	84ab      	strh	r3, [r5, #36]	; 0x24
     3de:	2380      	movs	r3, #128	; 0x80
     3e0:	8d22      	ldrh	r2, [r4, #40]	; 0x28
     3e2:	011b      	lsls	r3, r3, #4
     3e4:	18d3      	adds	r3, r2, r3
     3e6:	b29b      	uxth	r3, r3
     3e8:	428b      	cmp	r3, r1
     3ea:	d88b      	bhi.n	304 <adc_init+0xe4>
     3ec:	84ea      	strh	r2, [r5, #38]	; 0x26
     3ee:	22e0      	movs	r2, #224	; 0xe0
     3f0:	4b3b      	ldr	r3, [pc, #236]	; (4e0 <STACK_SIZE+0xe0>)
     3f2:	2000      	movs	r0, #0
     3f4:	6819      	ldr	r1, [r3, #0]
     3f6:	00d2      	lsls	r2, r2, #3
     3f8:	014b      	lsls	r3, r1, #5
     3fa:	0019      	movs	r1, r3
     3fc:	401a      	ands	r2, r3
     3fe:	4b39      	ldr	r3, [pc, #228]	; (4e4 <STACK_SIZE+0xe4>)
     400:	681b      	ldr	r3, [r3, #0]
     402:	0edb      	lsrs	r3, r3, #27
     404:	430b      	orrs	r3, r1
     406:	b2db      	uxtb	r3, r3
     408:	4313      	orrs	r3, r2
     40a:	852b      	strh	r3, [r5, #40]	; 0x28
     40c:	b007      	add	sp, #28
     40e:	bdf0      	pop	{r4, r5, r6, r7, pc}
     410:	7c61      	ldrb	r1, [r4, #17]
     412:	7c22      	ldrb	r2, [r4, #16]
     414:	2310      	movs	r3, #16
     416:	e77a      	b.n	30e <adc_init+0xee>
     418:	2206      	movs	r2, #6
     41a:	2310      	movs	r3, #16
     41c:	2101      	movs	r1, #1
     41e:	e776      	b.n	30e <adc_init+0xee>
     420:	2208      	movs	r2, #8
     422:	2100      	movs	r1, #0
     424:	e773      	b.n	30e <adc_init+0xee>
     426:	2200      	movs	r2, #0
     428:	e7fb      	b.n	422 <STACK_SIZE+0x22>
     42a:	2202      	movs	r2, #2
     42c:	e7f5      	b.n	41a <STACK_SIZE+0x1a>
     42e:	2b20      	cmp	r3, #32
     430:	d018      	beq.n	464 <STACK_SIZE+0x64>
     432:	2b30      	cmp	r3, #48	; 0x30
     434:	d000      	beq.n	438 <STACK_SIZE+0x38>
     436:	e793      	b.n	360 <adc_init+0x140>
     438:	7ce3      	ldrb	r3, [r4, #19]
     43a:	69e0      	ldr	r0, [r4, #28]
     43c:	2b00      	cmp	r3, #0
     43e:	d009      	beq.n	454 <STACK_SIZE+0x54>
     440:	0003      	movs	r3, r0
     442:	3380      	adds	r3, #128	; 0x80
     444:	2bff      	cmp	r3, #255	; 0xff
     446:	d900      	bls.n	44a <STACK_SIZE+0x4a>
     448:	e75c      	b.n	304 <adc_init+0xe4>
     44a:	6a23      	ldr	r3, [r4, #32]
     44c:	3380      	adds	r3, #128	; 0x80
     44e:	2bff      	cmp	r3, #255	; 0xff
     450:	d900      	bls.n	454 <STACK_SIZE+0x54>
     452:	e757      	b.n	304 <adc_init+0xe4>
     454:	28ff      	cmp	r0, #255	; 0xff
     456:	dd00      	ble.n	45a <STACK_SIZE+0x5a>
     458:	e754      	b.n	304 <adc_init+0xe4>
     45a:	6a23      	ldr	r3, [r4, #32]
     45c:	2bff      	cmp	r3, #255	; 0xff
     45e:	dd00      	ble.n	462 <STACK_SIZE+0x62>
     460:	e750      	b.n	304 <adc_init+0xe4>
     462:	e77d      	b.n	360 <adc_init+0x140>
     464:	7ce0      	ldrb	r0, [r4, #19]
     466:	69e6      	ldr	r6, [r4, #28]
     468:	4b1f      	ldr	r3, [pc, #124]	; (4e8 <STACK_SIZE+0xe8>)
     46a:	2800      	cmp	r0, #0
     46c:	d00c      	beq.n	488 <STACK_SIZE+0x88>
     46e:	2080      	movs	r0, #128	; 0x80
     470:	0080      	lsls	r0, r0, #2
     472:	1830      	adds	r0, r6, r0
     474:	4298      	cmp	r0, r3
     476:	d900      	bls.n	47a <STACK_SIZE+0x7a>
     478:	e744      	b.n	304 <adc_init+0xe4>
     47a:	2280      	movs	r2, #128	; 0x80
     47c:	6a20      	ldr	r0, [r4, #32]
     47e:	0092      	lsls	r2, r2, #2
     480:	1810      	adds	r0, r2, r0
     482:	4298      	cmp	r0, r3
     484:	d900      	bls.n	488 <STACK_SIZE+0x88>
     486:	e73d      	b.n	304 <adc_init+0xe4>
     488:	429e      	cmp	r6, r3
     48a:	dd00      	ble.n	48e <STACK_SIZE+0x8e>
     48c:	e73a      	b.n	304 <adc_init+0xe4>
     48e:	6a22      	ldr	r2, [r4, #32]
     490:	429a      	cmp	r2, r3
     492:	dd00      	ble.n	496 <STACK_SIZE+0x96>
     494:	e736      	b.n	304 <adc_init+0xe4>
     496:	e763      	b.n	360 <adc_init+0x140>
     498:	7ce0      	ldrb	r0, [r4, #19]
     49a:	69e6      	ldr	r6, [r4, #28]
     49c:	4b0f      	ldr	r3, [pc, #60]	; (4dc <STACK_SIZE+0xdc>)
     49e:	2800      	cmp	r0, #0
     4a0:	d0f2      	beq.n	488 <STACK_SIZE+0x88>
     4a2:	2280      	movs	r2, #128	; 0x80
     4a4:	0112      	lsls	r2, r2, #4
     4a6:	18b0      	adds	r0, r6, r2
     4a8:	4298      	cmp	r0, r3
     4aa:	d900      	bls.n	4ae <STACK_SIZE+0xae>
     4ac:	e72a      	b.n	304 <adc_init+0xe4>
     4ae:	2080      	movs	r0, #128	; 0x80
     4b0:	6a22      	ldr	r2, [r4, #32]
     4b2:	0100      	lsls	r0, r0, #4
     4b4:	e7e4      	b.n	480 <STACK_SIZE+0x80>
     4b6:	7ce0      	ldrb	r0, [r4, #19]
     4b8:	69e6      	ldr	r6, [r4, #28]
     4ba:	4b0c      	ldr	r3, [pc, #48]	; (4ec <STACK_SIZE+0xec>)
     4bc:	2800      	cmp	r0, #0
     4be:	d0e3      	beq.n	488 <STACK_SIZE+0x88>
     4c0:	2280      	movs	r2, #128	; 0x80
     4c2:	0212      	lsls	r2, r2, #8
     4c4:	18b0      	adds	r0, r6, r2
     4c6:	4298      	cmp	r0, r3
     4c8:	d900      	bls.n	4cc <STACK_SIZE+0xcc>
     4ca:	e71b      	b.n	304 <adc_init+0xe4>
     4cc:	2080      	movs	r0, #128	; 0x80
     4ce:	6a22      	ldr	r2, [r4, #32]
     4d0:	0200      	lsls	r0, r0, #8
     4d2:	e7d5      	b.n	480 <STACK_SIZE+0x80>
     4d4:	40000400 	.word	0x40000400
     4d8:	40000800 	.word	0x40000800
     4dc:	00000fff 	.word	0x00000fff
     4e0:	00806024 	.word	0x00806024
     4e4:	00806020 	.word	0x00806020
     4e8:	000003ff 	.word	0x000003ff
     4ec:	0000ffff 	.word	0x0000ffff

000004f0 <extint_register_callback>:
     4f0:	b510      	push	{r4, lr}
     4f2:	2317      	movs	r3, #23
     4f4:	2a00      	cmp	r2, #0
     4f6:	d106      	bne.n	506 <extint_register_callback+0x16>
     4f8:	4b06      	ldr	r3, [pc, #24]	; (514 <extint_register_callback+0x24>)
     4fa:	0089      	lsls	r1, r1, #2
     4fc:	58cc      	ldr	r4, [r1, r3]
     4fe:	2c00      	cmp	r4, #0
     500:	d103      	bne.n	50a <extint_register_callback+0x1a>
     502:	50c8      	str	r0, [r1, r3]
     504:	0023      	movs	r3, r4
     506:	0018      	movs	r0, r3
     508:	bd10      	pop	{r4, pc}
     50a:	0013      	movs	r3, r2
     50c:	4284      	cmp	r4, r0
     50e:	d0fa      	beq.n	506 <extint_register_callback+0x16>
     510:	231d      	movs	r3, #29
     512:	e7f8      	b.n	506 <extint_register_callback+0x16>
     514:	200000a4 	.word	0x200000a4

00000518 <extint_chan_enable_callback>:
     518:	2317      	movs	r3, #23
     51a:	2900      	cmp	r1, #0
     51c:	d106      	bne.n	52c <extint_chan_enable_callback+0x14>
     51e:	281f      	cmp	r0, #31
     520:	d806      	bhi.n	530 <extint_chan_enable_callback+0x18>
     522:	3b16      	subs	r3, #22
     524:	4083      	lsls	r3, r0
     526:	4a03      	ldr	r2, [pc, #12]	; (534 <extint_chan_enable_callback+0x1c>)
     528:	60d3      	str	r3, [r2, #12]
     52a:	000b      	movs	r3, r1
     52c:	0018      	movs	r0, r3
     52e:	4770      	bx	lr
     530:	60c9      	str	r1, [r1, #12]
     532:	deff      	udf	#255	; 0xff
     534:	40001800 	.word	0x40001800

00000538 <EIC_Handler>:
     538:	2300      	movs	r3, #0
     53a:	b570      	push	{r4, r5, r6, lr}
     53c:	2501      	movs	r5, #1
     53e:	4c0b      	ldr	r4, [pc, #44]	; (56c <EIC_Handler+0x34>)
     540:	7023      	strb	r3, [r4, #0]
     542:	7823      	ldrb	r3, [r4, #0]
     544:	2b0f      	cmp	r3, #15
     546:	d900      	bls.n	54a <EIC_Handler+0x12>
     548:	bd70      	pop	{r4, r5, r6, pc}
     54a:	0029      	movs	r1, r5
     54c:	4099      	lsls	r1, r3
     54e:	4a08      	ldr	r2, [pc, #32]	; (570 <EIC_Handler+0x38>)
     550:	6910      	ldr	r0, [r2, #16]
     552:	4208      	tst	r0, r1
     554:	d006      	beq.n	564 <EIC_Handler+0x2c>
     556:	6111      	str	r1, [r2, #16]
     558:	4a06      	ldr	r2, [pc, #24]	; (574 <EIC_Handler+0x3c>)
     55a:	009b      	lsls	r3, r3, #2
     55c:	589b      	ldr	r3, [r3, r2]
     55e:	2b00      	cmp	r3, #0
     560:	d000      	beq.n	564 <EIC_Handler+0x2c>
     562:	4798      	blx	r3
     564:	7823      	ldrb	r3, [r4, #0]
     566:	3301      	adds	r3, #1
     568:	7023      	strb	r3, [r4, #0]
     56a:	e7ea      	b.n	542 <EIC_Handler+0xa>
     56c:	200000a0 	.word	0x200000a0
     570:	40001800 	.word	0x40001800
     574:	200000a4 	.word	0x200000a4

00000578 <extint_is_syncing>:
     578:	4b01      	ldr	r3, [pc, #4]	; (580 <extint_is_syncing+0x8>)
     57a:	7858      	ldrb	r0, [r3, #1]
     57c:	09c0      	lsrs	r0, r0, #7
     57e:	4770      	bx	lr
     580:	40001800 	.word	0x40001800

00000584 <_extint_enable>:
     584:	2302      	movs	r3, #2
     586:	b510      	push	{r4, lr}
     588:	4a04      	ldr	r2, [pc, #16]	; (59c <_extint_enable+0x18>)
     58a:	7811      	ldrb	r1, [r2, #0]
     58c:	430b      	orrs	r3, r1
     58e:	7013      	strb	r3, [r2, #0]
     590:	f7ff fff2 	bl	578 <extint_is_syncing>
     594:	2800      	cmp	r0, #0
     596:	d1fb      	bne.n	590 <_extint_enable+0xc>
     598:	bd10      	pop	{r4, pc}
     59a:	46c0      	nop			; (mov r8, r8)
     59c:	40001800 	.word	0x40001800

000005a0 <_system_extint_init>:
     5a0:	2340      	movs	r3, #64	; 0x40
     5a2:	b507      	push	{r0, r1, r2, lr}
     5a4:	4a10      	ldr	r2, [pc, #64]	; (5e8 <_system_extint_init+0x48>)
     5a6:	2005      	movs	r0, #5
     5a8:	6991      	ldr	r1, [r2, #24]
     5aa:	430b      	orrs	r3, r1
     5ac:	6193      	str	r3, [r2, #24]
     5ae:	2300      	movs	r3, #0
     5b0:	a901      	add	r1, sp, #4
     5b2:	700b      	strb	r3, [r1, #0]
     5b4:	f001 fa0e 	bl	19d4 <system_gclk_chan_set_config>
     5b8:	2005      	movs	r0, #5
     5ba:	f001 f9cf 	bl	195c <system_gclk_chan_enable>
     5be:	2301      	movs	r3, #1
     5c0:	4a0a      	ldr	r2, [pc, #40]	; (5ec <_system_extint_init+0x4c>)
     5c2:	7811      	ldrb	r1, [r2, #0]
     5c4:	430b      	orrs	r3, r1
     5c6:	7013      	strb	r3, [r2, #0]
     5c8:	f7ff ffd6 	bl	578 <extint_is_syncing>
     5cc:	2800      	cmp	r0, #0
     5ce:	d1fb      	bne.n	5c8 <_system_extint_init+0x28>
     5d0:	0002      	movs	r2, r0
     5d2:	4b07      	ldr	r3, [pc, #28]	; (5f0 <_system_extint_init+0x50>)
     5d4:	501a      	str	r2, [r3, r0]
     5d6:	3004      	adds	r0, #4
     5d8:	2840      	cmp	r0, #64	; 0x40
     5da:	d1fb      	bne.n	5d4 <_system_extint_init+0x34>
     5dc:	2210      	movs	r2, #16
     5de:	4b05      	ldr	r3, [pc, #20]	; (5f4 <_system_extint_init+0x54>)
     5e0:	601a      	str	r2, [r3, #0]
     5e2:	f7ff ffcf 	bl	584 <_extint_enable>
     5e6:	bd07      	pop	{r0, r1, r2, pc}
     5e8:	40000400 	.word	0x40000400
     5ec:	40001800 	.word	0x40001800
     5f0:	200000a4 	.word	0x200000a4
     5f4:	e000e100 	.word	0xe000e100

000005f8 <extint_chan_get_config_defaults>:
     5f8:	2300      	movs	r3, #0
     5fa:	2201      	movs	r2, #1
     5fc:	6003      	str	r3, [r0, #0]
     5fe:	6043      	str	r3, [r0, #4]
     600:	7283      	strb	r3, [r0, #10]
     602:	3302      	adds	r3, #2
     604:	7202      	strb	r2, [r0, #8]
     606:	7242      	strb	r2, [r0, #9]
     608:	72c3      	strb	r3, [r0, #11]
     60a:	4770      	bx	lr

0000060c <extint_chan_set_config>:
     60c:	b5f7      	push	{r0, r1, r2, r4, r5, r6, r7, lr}
     60e:	000c      	movs	r4, r1
     610:	2600      	movs	r6, #0
     612:	7923      	ldrb	r3, [r4, #4]
     614:	a901      	add	r1, sp, #4
     616:	704e      	strb	r6, [r1, #1]
     618:	70ce      	strb	r6, [r1, #3]
     61a:	700b      	strb	r3, [r1, #0]
     61c:	7a23      	ldrb	r3, [r4, #8]
     61e:	0005      	movs	r5, r0
     620:	7820      	ldrb	r0, [r4, #0]
     622:	708b      	strb	r3, [r1, #2]
     624:	f001 fa38 	bl	1a98 <system_pinmux_pin_set_config>
     628:	0033      	movs	r3, r6
     62a:	2d1f      	cmp	r5, #31
     62c:	d800      	bhi.n	630 <extint_chan_set_config+0x24>
     62e:	4b11      	ldr	r3, [pc, #68]	; (674 <extint_chan_set_config+0x68>)
     630:	2107      	movs	r1, #7
     632:	7aa2      	ldrb	r2, [r4, #10]
     634:	4029      	ands	r1, r5
     636:	0089      	lsls	r1, r1, #2
     638:	7ae6      	ldrb	r6, [r4, #11]
     63a:	2a00      	cmp	r2, #0
     63c:	d001      	beq.n	642 <extint_chan_set_config+0x36>
     63e:	2208      	movs	r2, #8
     640:	4316      	orrs	r6, r2
     642:	270f      	movs	r7, #15
     644:	408e      	lsls	r6, r1
     646:	408f      	lsls	r7, r1
     648:	0031      	movs	r1, r6
     64a:	08ea      	lsrs	r2, r5, #3
     64c:	0092      	lsls	r2, r2, #2
     64e:	189a      	adds	r2, r3, r2
     650:	6990      	ldr	r0, [r2, #24]
     652:	43b8      	bics	r0, r7
     654:	4301      	orrs	r1, r0
     656:	6191      	str	r1, [r2, #24]
     658:	7a61      	ldrb	r1, [r4, #9]
     65a:	2201      	movs	r2, #1
     65c:	2900      	cmp	r1, #0
     65e:	d004      	beq.n	66a <extint_chan_set_config+0x5e>
     660:	40aa      	lsls	r2, r5
     662:	6959      	ldr	r1, [r3, #20]
     664:	430a      	orrs	r2, r1
     666:	615a      	str	r2, [r3, #20]
     668:	bdf7      	pop	{r0, r1, r2, r4, r5, r6, r7, pc}
     66a:	40aa      	lsls	r2, r5
     66c:	6959      	ldr	r1, [r3, #20]
     66e:	4391      	bics	r1, r2
     670:	6159      	str	r1, [r3, #20]
     672:	e7f9      	b.n	668 <extint_chan_set_config+0x5c>
     674:	40001800 	.word	0x40001800

00000678 <is_button_one_pressed>:
     678:	4b14      	ldr	r3, [pc, #80]	; (6cc <is_button_one_pressed+0x54>)
     67a:	4915      	ldr	r1, [pc, #84]	; (6d0 <is_button_one_pressed+0x58>)
     67c:	6a18      	ldr	r0, [r3, #32]
     67e:	4a15      	ldr	r2, [pc, #84]	; (6d4 <is_button_one_pressed+0x5c>)
     680:	4b15      	ldr	r3, [pc, #84]	; (6d8 <is_button_one_pressed+0x60>)
     682:	0440      	lsls	r0, r0, #17
     684:	d418      	bmi.n	6b8 <is_button_one_pressed+0x40>
     686:	2001      	movs	r0, #1
     688:	7008      	strb	r0, [r1, #0]
     68a:	6819      	ldr	r1, [r3, #0]
     68c:	3901      	subs	r1, #1
     68e:	6019      	str	r1, [r3, #0]
     690:	6811      	ldr	r1, [r2, #0]
     692:	3901      	subs	r1, #1
     694:	6011      	str	r1, [r2, #0]
     696:	6811      	ldr	r1, [r2, #0]
     698:	2900      	cmp	r1, #0
     69a:	dc04      	bgt.n	6a6 <is_button_one_pressed+0x2e>
     69c:	2001      	movs	r0, #1
     69e:	490f      	ldr	r1, [pc, #60]	; (6dc <is_button_one_pressed+0x64>)
     6a0:	7008      	strb	r0, [r1, #0]
     6a2:	2100      	movs	r1, #0
     6a4:	6011      	str	r1, [r2, #0]
     6a6:	2000      	movs	r0, #0
     6a8:	6819      	ldr	r1, [r3, #0]
     6aa:	4a0d      	ldr	r2, [pc, #52]	; (6e0 <is_button_one_pressed+0x68>)
     6ac:	4281      	cmp	r1, r0
     6ae:	dc0a      	bgt.n	6c6 <is_button_one_pressed+0x4e>
     6b0:	7010      	strb	r0, [r2, #0]
     6b2:	6018      	str	r0, [r3, #0]
     6b4:	3001      	adds	r0, #1
     6b6:	4770      	bx	lr
     6b8:	2000      	movs	r0, #0
     6ba:	7008      	strb	r0, [r1, #0]
     6bc:	2102      	movs	r1, #2
     6be:	6019      	str	r1, [r3, #0]
     6c0:	318f      	adds	r1, #143	; 0x8f
     6c2:	31ff      	adds	r1, #255	; 0xff
     6c4:	e7e6      	b.n	694 <is_button_one_pressed+0x1c>
     6c6:	2301      	movs	r3, #1
     6c8:	7013      	strb	r3, [r2, #0]
     6ca:	e7f4      	b.n	6b6 <is_button_one_pressed+0x3e>
     6cc:	41004400 	.word	0x41004400
     6d0:	2000003c 	.word	0x2000003c
     6d4:	20000000 	.word	0x20000000
     6d8:	20000008 	.word	0x20000008
     6dc:	20000040 	.word	0x20000040
     6e0:	2000003d 	.word	0x2000003d

000006e4 <is_button_two_pressed>:
     6e4:	4b14      	ldr	r3, [pc, #80]	; (738 <is_button_two_pressed+0x54>)
     6e6:	4915      	ldr	r1, [pc, #84]	; (73c <is_button_two_pressed+0x58>)
     6e8:	6a18      	ldr	r0, [r3, #32]
     6ea:	4a15      	ldr	r2, [pc, #84]	; (740 <is_button_two_pressed+0x5c>)
     6ec:	4b15      	ldr	r3, [pc, #84]	; (744 <is_button_two_pressed+0x60>)
     6ee:	0400      	lsls	r0, r0, #16
     6f0:	d418      	bmi.n	724 <is_button_two_pressed+0x40>
     6f2:	2001      	movs	r0, #1
     6f4:	7008      	strb	r0, [r1, #0]
     6f6:	6819      	ldr	r1, [r3, #0]
     6f8:	3901      	subs	r1, #1
     6fa:	6019      	str	r1, [r3, #0]
     6fc:	6811      	ldr	r1, [r2, #0]
     6fe:	3901      	subs	r1, #1
     700:	6011      	str	r1, [r2, #0]
     702:	6811      	ldr	r1, [r2, #0]
     704:	2900      	cmp	r1, #0
     706:	dc04      	bgt.n	712 <is_button_two_pressed+0x2e>
     708:	2001      	movs	r0, #1
     70a:	490f      	ldr	r1, [pc, #60]	; (748 <is_button_two_pressed+0x64>)
     70c:	7008      	strb	r0, [r1, #0]
     70e:	2100      	movs	r1, #0
     710:	6011      	str	r1, [r2, #0]
     712:	2000      	movs	r0, #0
     714:	6819      	ldr	r1, [r3, #0]
     716:	4a0d      	ldr	r2, [pc, #52]	; (74c <is_button_two_pressed+0x68>)
     718:	4281      	cmp	r1, r0
     71a:	dc0a      	bgt.n	732 <is_button_two_pressed+0x4e>
     71c:	7010      	strb	r0, [r2, #0]
     71e:	6018      	str	r0, [r3, #0]
     720:	3001      	adds	r0, #1
     722:	4770      	bx	lr
     724:	2000      	movs	r0, #0
     726:	7008      	strb	r0, [r1, #0]
     728:	2102      	movs	r1, #2
     72a:	6019      	str	r1, [r3, #0]
     72c:	318f      	adds	r1, #143	; 0x8f
     72e:	31ff      	adds	r1, #255	; 0xff
     730:	e7e6      	b.n	700 <is_button_two_pressed+0x1c>
     732:	2301      	movs	r3, #1
     734:	7013      	strb	r3, [r2, #0]
     736:	e7f4      	b.n	722 <is_button_two_pressed+0x3e>
     738:	41004400 	.word	0x41004400
     73c:	2000003e 	.word	0x2000003e
     740:	20000004 	.word	0x20000004
     744:	2000000c 	.word	0x2000000c
     748:	20000041 	.word	0x20000041
     74c:	2000003f 	.word	0x2000003f

00000750 <set_pwm_color_channel>:
     750:	b510      	push	{r4, lr}
     752:	1e0a      	subs	r2, r1, #0
     754:	4c0a      	ldr	r4, [pc, #40]	; (780 <set_pwm_color_channel+0x30>)
     756:	d000      	beq.n	75a <set_pwm_color_channel+0xa>
     758:	4a0a      	ldr	r2, [pc, #40]	; (784 <set_pwm_color_channel+0x34>)
     75a:	0001      	movs	r1, r0
     75c:	0020      	movs	r0, r4
     75e:	f001 fbb3 	bl	1ec8 <tcc_set_compare_value>
     762:	2104      	movs	r1, #4
     764:	201f      	movs	r0, #31
     766:	6822      	ldr	r2, [r4, #0]
     768:	6893      	ldr	r3, [r2, #8]
     76a:	420b      	tst	r3, r1
     76c:	d1fc      	bne.n	768 <set_pwm_color_channel+0x18>
     76e:	7953      	ldrb	r3, [r2, #5]
     770:	4383      	bics	r3, r0
     772:	d002      	beq.n	77a <set_pwm_color_channel+0x2a>
     774:	2b60      	cmp	r3, #96	; 0x60
     776:	d1f7      	bne.n	768 <set_pwm_color_channel+0x18>
     778:	bd10      	pop	{r4, pc}
     77a:	2360      	movs	r3, #96	; 0x60
     77c:	7153      	strb	r3, [r2, #5]
     77e:	e7fb      	b.n	778 <set_pwm_color_channel+0x28>
     780:	200000e4 	.word	0x200000e4
     784:	00000fff 	.word	0x00000fff

00000788 <pwm_led_system_cleanup>:
     788:	2100      	movs	r1, #0
     78a:	b510      	push	{r4, lr}
     78c:	0008      	movs	r0, r1
     78e:	f7ff ffdf 	bl	750 <set_pwm_color_channel>
     792:	2100      	movs	r1, #0
     794:	2002      	movs	r0, #2
     796:	f7ff ffdb 	bl	750 <set_pwm_color_channel>
     79a:	2100      	movs	r1, #0
     79c:	2001      	movs	r0, #1
     79e:	f7ff ffd7 	bl	750 <set_pwm_color_channel>
     7a2:	2100      	movs	r1, #0
     7a4:	2003      	movs	r0, #3
     7a6:	f7ff ffd3 	bl	750 <set_pwm_color_channel>
     7aa:	bd10      	pop	{r4, pc}

000007ac <set_pwm_color>:
     7ac:	b510      	push	{r4, lr}
     7ae:	0004      	movs	r4, r0
     7b0:	f7ff ffea 	bl	788 <pwm_led_system_cleanup>
     7b4:	2c06      	cmp	r4, #6
     7b6:	d80a      	bhi.n	7ce <set_pwm_color+0x22>
     7b8:	0020      	movs	r0, r4
     7ba:	2101      	movs	r1, #1
     7bc:	f001 ffac 	bl	2718 <__gnu_thumb1_case_uqi>
     7c0:	08140e04 	.word	0x08140e04
     7c4:	100a      	.short	0x100a
     7c6:	16          	.byte	0x16
     7c7:	00          	.byte	0x00
     7c8:	2000      	movs	r0, #0
     7ca:	f7ff ffc1 	bl	750 <set_pwm_color_channel>
     7ce:	bd10      	pop	{r4, pc}
     7d0:	2003      	movs	r0, #3
     7d2:	e7fa      	b.n	7ca <set_pwm_color+0x1e>
     7d4:	2000      	movs	r0, #0
     7d6:	f7ff ffbb 	bl	750 <set_pwm_color_channel>
     7da:	2101      	movs	r1, #1
     7dc:	0008      	movs	r0, r1
     7de:	e7f4      	b.n	7ca <set_pwm_color+0x1e>
     7e0:	2000      	movs	r0, #0
     7e2:	f7ff ffb5 	bl	750 <set_pwm_color_channel>
     7e6:	2101      	movs	r1, #1
     7e8:	2002      	movs	r0, #2
     7ea:	e7ee      	b.n	7ca <set_pwm_color+0x1e>
     7ec:	2002      	movs	r0, #2
     7ee:	e7f2      	b.n	7d6 <set_pwm_color+0x2a>

000007f0 <configure_pwm_tcc>:
     7f0:	b570      	push	{r4, r5, r6, lr}
     7f2:	4c1c      	ldr	r4, [pc, #112]	; (864 <configure_pwm_tcc+0x74>)
     7f4:	491c      	ldr	r1, [pc, #112]	; (868 <configure_pwm_tcc+0x78>)
     7f6:	0020      	movs	r0, r4
     7f8:	f001 f998 	bl	1b2c <tcc_get_config_defaults>
     7fc:	2105      	movs	r1, #5
     7fe:	4b1b      	ldr	r3, [pc, #108]	; (86c <configure_pwm_tcc+0x7c>)
     800:	67a1      	str	r1, [r4, #120]	; 0x78
     802:	6063      	str	r3, [r4, #4]
     804:	65e1      	str	r1, [r4, #92]	; 0x5c
     806:	2300      	movs	r3, #0
     808:	67e1      	str	r1, [r4, #124]	; 0x7c
     80a:	0021      	movs	r1, r4
     80c:	61e3      	str	r3, [r4, #28]
     80e:	6263      	str	r3, [r4, #36]	; 0x24
     810:	6223      	str	r3, [r4, #32]
     812:	62a3      	str	r3, [r4, #40]	; 0x28
     814:	3199      	adds	r1, #153	; 0x99
     816:	3301      	adds	r3, #1
     818:	2204      	movs	r2, #4
     81a:	700b      	strb	r3, [r1, #0]
     81c:	2108      	movs	r1, #8
     81e:	6621      	str	r1, [r4, #96]	; 0x60
     820:	18a1      	adds	r1, r4, r2
     822:	67ca      	str	r2, [r1, #124]	; 0x7c
     824:	0021      	movs	r1, r4
     826:	319a      	adds	r1, #154	; 0x9a
     828:	700b      	strb	r3, [r1, #0]
     82a:	2109      	movs	r1, #9
     82c:	6661      	str	r1, [r4, #100]	; 0x64
     82e:	0021      	movs	r1, r4
     830:	3108      	adds	r1, #8
     832:	67ca      	str	r2, [r1, #124]	; 0x7c
     834:	65a2      	str	r2, [r4, #88]	; 0x58
     836:	0020      	movs	r0, r4
     838:	0022      	movs	r2, r4
     83a:	2502      	movs	r5, #2
     83c:	4e0c      	ldr	r6, [pc, #48]	; (870 <configure_pwm_tcc+0x80>)
     83e:	3098      	adds	r0, #152	; 0x98
     840:	329b      	adds	r2, #155	; 0x9b
     842:	7003      	strb	r3, [r0, #0]
     844:	7013      	strb	r3, [r2, #0]
     846:	4908      	ldr	r1, [pc, #32]	; (868 <configure_pwm_tcc+0x78>)
     848:	0022      	movs	r2, r4
     84a:	0030      	movs	r0, r6
     84c:	7625      	strb	r5, [r4, #24]
     84e:	f001 f9df 	bl	1c10 <tcc_init>
     852:	6833      	ldr	r3, [r6, #0]
     854:	689a      	ldr	r2, [r3, #8]
     856:	422a      	tst	r2, r5
     858:	d1fc      	bne.n	854 <configure_pwm_tcc+0x64>
     85a:	681a      	ldr	r2, [r3, #0]
     85c:	4315      	orrs	r5, r2
     85e:	601d      	str	r5, [r3, #0]
     860:	bd70      	pop	{r4, r5, r6, pc}
     862:	46c0      	nop			; (mov r8, r8)
     864:	20000140 	.word	0x20000140
     868:	42001400 	.word	0x42001400
     86c:	00000fff 	.word	0x00000fff
     870:	200000e4 	.word	0x200000e4

00000874 <cycle_pwm_led>:
     874:	b510      	push	{r4, lr}
     876:	4c10      	ldr	r4, [pc, #64]	; (8b8 <cycle_pwm_led+0x44>)
     878:	7820      	ldrb	r0, [r4, #0]
     87a:	3801      	subs	r0, #1
     87c:	2806      	cmp	r0, #6
     87e:	d815      	bhi.n	8ac <cycle_pwm_led+0x38>
     880:	f001 ff4a 	bl	2718 <__gnu_thumb1_case_uqi>
     884:	0c0a0804 	.word	0x0c0a0804
     888:	100e      	.short	0x100e
     88a:	12          	.byte	0x12
     88b:	00          	.byte	0x00
     88c:	2000      	movs	r0, #0
     88e:	f7ff ff8d 	bl	7ac <set_pwm_color>
     892:	bd10      	pop	{r4, pc}
     894:	2001      	movs	r0, #1
     896:	e7fa      	b.n	88e <cycle_pwm_led+0x1a>
     898:	2002      	movs	r0, #2
     89a:	e7f8      	b.n	88e <cycle_pwm_led+0x1a>
     89c:	2004      	movs	r0, #4
     89e:	e7f6      	b.n	88e <cycle_pwm_led+0x1a>
     8a0:	2005      	movs	r0, #5
     8a2:	e7f4      	b.n	88e <cycle_pwm_led+0x1a>
     8a4:	2006      	movs	r0, #6
     8a6:	e7f2      	b.n	88e <cycle_pwm_led+0x1a>
     8a8:	2003      	movs	r0, #3
     8aa:	e7f0      	b.n	88e <cycle_pwm_led+0x1a>
     8ac:	f7ff ff6c 	bl	788 <pwm_led_system_cleanup>
     8b0:	2300      	movs	r3, #0
     8b2:	7023      	strb	r3, [r4, #0]
     8b4:	e7ed      	b.n	892 <cycle_pwm_led+0x1e>
     8b6:	46c0      	nop			; (mov r8, r8)
     8b8:	20000042 	.word	0x20000042

000008bc <configure_pwm_generator>:
     8bc:	21a0      	movs	r1, #160	; 0xa0
     8be:	b500      	push	{lr}
     8c0:	b08f      	sub	sp, #60	; 0x3c
     8c2:	aa01      	add	r2, sp, #4
     8c4:	00c9      	lsls	r1, r1, #3
     8c6:	8091      	strh	r1, [r2, #4]
     8c8:	212d      	movs	r1, #45	; 0x2d
     8ca:	2300      	movs	r3, #0
     8cc:	2055      	movs	r0, #85	; 0x55
     8ce:	4469      	add	r1, sp
     8d0:	8513      	strh	r3, [r2, #40]	; 0x28
     8d2:	7008      	strb	r0, [r1, #0]
     8d4:	212e      	movs	r1, #46	; 0x2e
     8d6:	3840      	subs	r0, #64	; 0x40
     8d8:	4469      	add	r1, sp
     8da:	8553      	strh	r3, [r2, #42]	; 0x2a
     8dc:	7008      	strb	r0, [r1, #0]
     8de:	2140      	movs	r1, #64	; 0x40
     8e0:	7013      	strb	r3, [r2, #0]
     8e2:	8113      	strh	r3, [r2, #8]
     8e4:	7053      	strb	r3, [r2, #1]
     8e6:	7293      	strb	r3, [r2, #10]
     8e8:	72d3      	strb	r3, [r2, #11]
     8ea:	7313      	strb	r3, [r2, #12]
     8ec:	7393      	strb	r3, [r2, #14]
     8ee:	7353      	strb	r3, [r2, #13]
     8f0:	7713      	strb	r3, [r2, #28]
     8f2:	6213      	str	r3, [r2, #32]
     8f4:	6253      	str	r3, [r2, #36]	; 0x24
     8f6:	8593      	strh	r3, [r2, #44]	; 0x2c
     8f8:	3304      	adds	r3, #4
     8fa:	7093      	strb	r3, [r2, #2]
     8fc:	7191      	strb	r1, [r2, #6]
     8fe:	6193      	str	r3, [r2, #24]
     900:	3936      	subs	r1, #54	; 0x36
     902:	3b03      	subs	r3, #3
     904:	6151      	str	r1, [r2, #20]
     906:	7413      	strb	r3, [r2, #16]
     908:	4902      	ldr	r1, [pc, #8]	; (914 <configure_pwm_generator+0x58>)
     90a:	4803      	ldr	r0, [pc, #12]	; (918 <configure_pwm_generator+0x5c>)
     90c:	f001 fb64 	bl	1fd8 <tc_init>
     910:	b00f      	add	sp, #60	; 0x3c
     912:	bd00      	pop	{pc}
     914:	42001c00 	.word	0x42001c00
     918:	200001e4 	.word	0x200001e4

0000091c <motor_enable>:
     91c:	b510      	push	{r4, lr}
     91e:	4b09      	ldr	r3, [pc, #36]	; (944 <motor_enable+0x28>)
     920:	681b      	ldr	r3, [r3, #0]
     922:	7bda      	ldrb	r2, [r3, #15]
     924:	b252      	sxtb	r2, r2
     926:	2a00      	cmp	r2, #0
     928:	dbfb      	blt.n	922 <motor_enable+0x6>
     92a:	2202      	movs	r2, #2
     92c:	8819      	ldrh	r1, [r3, #0]
     92e:	430a      	orrs	r2, r1
     930:	801a      	strh	r2, [r3, #0]
     932:	2240      	movs	r2, #64	; 0x40
     934:	4b04      	ldr	r3, [pc, #16]	; (948 <motor_enable+0x2c>)
     936:	619a      	str	r2, [r3, #24]
     938:	4b04      	ldr	r3, [pc, #16]	; (94c <motor_enable+0x30>)
     93a:	3a3f      	subs	r2, #63	; 0x3f
     93c:	701a      	strb	r2, [r3, #0]
     93e:	f001 fdc5 	bl	24cc <set_motor_speed_1_indication>
     942:	bd10      	pop	{r4, pc}
     944:	200001e4 	.word	0x200001e4
     948:	41004400 	.word	0x41004400
     94c:	20000044 	.word	0x20000044

00000950 <motor_disable>:
     950:	2100      	movs	r1, #0
     952:	4b0e      	ldr	r3, [pc, #56]	; (98c <motor_disable+0x3c>)
     954:	b510      	push	{r4, lr}
     956:	7019      	strb	r1, [r3, #0]
     958:	4b0d      	ldr	r3, [pc, #52]	; (990 <motor_disable+0x40>)
     95a:	4c0e      	ldr	r4, [pc, #56]	; (994 <motor_disable+0x44>)
     95c:	7019      	strb	r1, [r3, #0]
     95e:	4b0e      	ldr	r3, [pc, #56]	; (998 <motor_disable+0x48>)
     960:	2215      	movs	r2, #21
     962:	0020      	movs	r0, r4
     964:	7019      	strb	r1, [r3, #0]
     966:	f001 fc4b 	bl	2200 <tc_set_compare_value>
     96a:	6823      	ldr	r3, [r4, #0]
     96c:	7bda      	ldrb	r2, [r3, #15]
     96e:	b252      	sxtb	r2, r2
     970:	2a00      	cmp	r2, #0
     972:	dbfb      	blt.n	96c <motor_disable+0x1c>
     974:	223b      	movs	r2, #59	; 0x3b
     976:	2102      	movs	r1, #2
     978:	731a      	strb	r2, [r3, #12]
     97a:	739a      	strb	r2, [r3, #14]
     97c:	881a      	ldrh	r2, [r3, #0]
     97e:	438a      	bics	r2, r1
     980:	801a      	strh	r2, [r3, #0]
     982:	2240      	movs	r2, #64	; 0x40
     984:	4b05      	ldr	r3, [pc, #20]	; (99c <motor_disable+0x4c>)
     986:	615a      	str	r2, [r3, #20]
     988:	bd10      	pop	{r4, pc}
     98a:	46c0      	nop			; (mov r8, r8)
     98c:	20000046 	.word	0x20000046
     990:	20000045 	.word	0x20000045
     994:	200001e4 	.word	0x200001e4
     998:	20000044 	.word	0x20000044
     99c:	41004400 	.word	0x41004400

000009a0 <cycle_pwm_motor>:
     9a0:	b510      	push	{r4, lr}
     9a2:	4b16      	ldr	r3, [pc, #88]	; (9fc <cycle_pwm_motor+0x5c>)
     9a4:	781b      	ldrb	r3, [r3, #0]
     9a6:	2b00      	cmp	r3, #0
     9a8:	d00a      	beq.n	9c0 <cycle_pwm_motor+0x20>
     9aa:	4b15      	ldr	r3, [pc, #84]	; (a00 <cycle_pwm_motor+0x60>)
     9ac:	781b      	ldrb	r3, [r3, #0]
     9ae:	2b02      	cmp	r3, #2
     9b0:	d107      	bne.n	9c2 <cycle_pwm_motor+0x22>
     9b2:	2222      	movs	r2, #34	; 0x22
     9b4:	2100      	movs	r1, #0
     9b6:	4813      	ldr	r0, [pc, #76]	; (a04 <cycle_pwm_motor+0x64>)
     9b8:	f001 fc22 	bl	2200 <tc_set_compare_value>
     9bc:	f001 fdb2 	bl	2524 <set_motor_speed_2_indication>
     9c0:	bd10      	pop	{r4, pc}
     9c2:	2b03      	cmp	r3, #3
     9c4:	d107      	bne.n	9d6 <cycle_pwm_motor+0x36>
     9c6:	224d      	movs	r2, #77	; 0x4d
     9c8:	2100      	movs	r1, #0
     9ca:	480e      	ldr	r0, [pc, #56]	; (a04 <cycle_pwm_motor+0x64>)
     9cc:	f001 fc18 	bl	2200 <tc_set_compare_value>
     9d0:	f001 fdd4 	bl	257c <set_motor_speed_3_indication>
     9d4:	e7f4      	b.n	9c0 <cycle_pwm_motor+0x20>
     9d6:	2b04      	cmp	r3, #4
     9d8:	d10a      	bne.n	9f0 <cycle_pwm_motor+0x50>
     9da:	2201      	movs	r2, #1
     9dc:	4b0a      	ldr	r3, [pc, #40]	; (a08 <cycle_pwm_motor+0x68>)
     9de:	2100      	movs	r1, #0
     9e0:	701a      	strb	r2, [r3, #0]
     9e2:	4808      	ldr	r0, [pc, #32]	; (a04 <cycle_pwm_motor+0x64>)
     9e4:	324c      	adds	r2, #76	; 0x4c
     9e6:	f001 fc0b 	bl	2200 <tc_set_compare_value>
     9ea:	f001 fdf3 	bl	25d4 <set_motor_pulsating_indication>
     9ee:	e7e7      	b.n	9c0 <cycle_pwm_motor+0x20>
     9f0:	2b04      	cmp	r3, #4
     9f2:	d9e5      	bls.n	9c0 <cycle_pwm_motor+0x20>
     9f4:	f7ff ffac 	bl	950 <motor_disable>
     9f8:	e7e2      	b.n	9c0 <cycle_pwm_motor+0x20>
     9fa:	46c0      	nop			; (mov r8, r8)
     9fc:	20000044 	.word	0x20000044
     a00:	20000045 	.word	0x20000045
     a04:	200001e4 	.word	0x200001e4
     a08:	20000046 	.word	0x20000046

00000a0c <toggle_nsleep>:
     a0c:	4b08      	ldr	r3, [pc, #32]	; (a30 <toggle_nsleep+0x24>)
     a0e:	781b      	ldrb	r3, [r3, #0]
     a10:	2b00      	cmp	r3, #0
     a12:	d008      	beq.n	a26 <toggle_nsleep+0x1a>
     a14:	4b07      	ldr	r3, [pc, #28]	; (a34 <toggle_nsleep+0x28>)
     a16:	4a08      	ldr	r2, [pc, #32]	; (a38 <toggle_nsleep+0x2c>)
     a18:	7818      	ldrb	r0, [r3, #0]
     a1a:	2140      	movs	r1, #64	; 0x40
     a1c:	2800      	cmp	r0, #0
     a1e:	d003      	beq.n	a28 <toggle_nsleep+0x1c>
     a20:	6151      	str	r1, [r2, #20]
     a22:	2200      	movs	r2, #0
     a24:	701a      	strb	r2, [r3, #0]
     a26:	4770      	bx	lr
     a28:	2001      	movs	r0, #1
     a2a:	7018      	strb	r0, [r3, #0]
     a2c:	6191      	str	r1, [r2, #24]
     a2e:	e7fa      	b.n	a26 <toggle_nsleep+0x1a>
     a30:	20000046 	.word	0x20000046
     a34:	20000043 	.word	0x20000043
     a38:	41004400 	.word	0x41004400

00000a3c <regular_routine>:
     a3c:	b510      	push	{r4, lr}
     a3e:	f7ff fe1b 	bl	678 <is_button_one_pressed>
     a42:	2800      	cmp	r0, #0
     a44:	d007      	beq.n	a56 <regular_routine+0x1a>
     a46:	4c2b      	ldr	r4, [pc, #172]	; (af4 <regular_routine+0xb8>)
     a48:	7823      	ldrb	r3, [r4, #0]
     a4a:	2b00      	cmp	r3, #0
     a4c:	d02f      	beq.n	aae <regular_routine+0x72>
     a4e:	f7ff ff7f 	bl	950 <motor_disable>
     a52:	2300      	movs	r3, #0
     a54:	7023      	strb	r3, [r4, #0]
     a56:	4b28      	ldr	r3, [pc, #160]	; (af8 <regular_routine+0xbc>)
     a58:	781b      	ldrb	r3, [r3, #0]
     a5a:	2b00      	cmp	r3, #0
     a5c:	d002      	beq.n	a64 <regular_routine+0x28>
     a5e:	2200      	movs	r2, #0
     a60:	4b26      	ldr	r3, [pc, #152]	; (afc <regular_routine+0xc0>)
     a62:	701a      	strb	r2, [r3, #0]
     a64:	f7ff fe3e 	bl	6e4 <is_button_two_pressed>
     a68:	2800      	cmp	r0, #0
     a6a:	d007      	beq.n	a7c <regular_routine+0x40>
     a6c:	4c24      	ldr	r4, [pc, #144]	; (b00 <regular_routine+0xc4>)
     a6e:	7823      	ldrb	r3, [r4, #0]
     a70:	2b00      	cmp	r3, #0
     a72:	d030      	beq.n	ad6 <regular_routine+0x9a>
     a74:	f7ff ff6c 	bl	950 <motor_disable>
     a78:	2300      	movs	r3, #0
     a7a:	7023      	strb	r3, [r4, #0]
     a7c:	4b21      	ldr	r3, [pc, #132]	; (b04 <regular_routine+0xc8>)
     a7e:	781b      	ldrb	r3, [r3, #0]
     a80:	2b00      	cmp	r3, #0
     a82:	d002      	beq.n	a8a <regular_routine+0x4e>
     a84:	2200      	movs	r2, #0
     a86:	4b20      	ldr	r3, [pc, #128]	; (b08 <regular_routine+0xcc>)
     a88:	701a      	strb	r2, [r3, #0]
     a8a:	4b20      	ldr	r3, [pc, #128]	; (b0c <regular_routine+0xd0>)
     a8c:	781b      	ldrb	r3, [r3, #0]
     a8e:	2b00      	cmp	r3, #0
     a90:	d00c      	beq.n	aac <regular_routine+0x70>
     a92:	4b1f      	ldr	r3, [pc, #124]	; (b10 <regular_routine+0xd4>)
     a94:	781b      	ldrb	r3, [r3, #0]
     a96:	2b00      	cmp	r3, #0
     a98:	d001      	beq.n	a9e <regular_routine+0x62>
     a9a:	f7ff ff59 	bl	950 <motor_disable>
     a9e:	4b1d      	ldr	r3, [pc, #116]	; (b14 <regular_routine+0xd8>)
     aa0:	781a      	ldrb	r2, [r3, #0]
     aa2:	4b1d      	ldr	r3, [pc, #116]	; (b18 <regular_routine+0xdc>)
     aa4:	2a00      	cmp	r2, #0
     aa6:	d123      	bne.n	af0 <regular_routine+0xb4>
     aa8:	3201      	adds	r2, #1
     aaa:	701a      	strb	r2, [r3, #0]
     aac:	bd10      	pop	{r4, pc}
     aae:	4a13      	ldr	r2, [pc, #76]	; (afc <regular_routine+0xc0>)
     ab0:	7813      	ldrb	r3, [r2, #0]
     ab2:	2b00      	cmp	r3, #0
     ab4:	d1cf      	bne.n	a56 <regular_routine+0x1a>
     ab6:	4919      	ldr	r1, [pc, #100]	; (b1c <regular_routine+0xe0>)
     ab8:	780b      	ldrb	r3, [r1, #0]
     aba:	3301      	adds	r3, #1
     abc:	700b      	strb	r3, [r1, #0]
     abe:	2301      	movs	r3, #1
     ac0:	7013      	strb	r3, [r2, #0]
     ac2:	4b13      	ldr	r3, [pc, #76]	; (b10 <regular_routine+0xd4>)
     ac4:	781b      	ldrb	r3, [r3, #0]
     ac6:	2b00      	cmp	r3, #0
     ac8:	d102      	bne.n	ad0 <regular_routine+0x94>
     aca:	f7ff ff27 	bl	91c <motor_enable>
     ace:	e7c2      	b.n	a56 <regular_routine+0x1a>
     ad0:	f7ff ff66 	bl	9a0 <cycle_pwm_motor>
     ad4:	e7bf      	b.n	a56 <regular_routine+0x1a>
     ad6:	4a0c      	ldr	r2, [pc, #48]	; (b08 <regular_routine+0xcc>)
     ad8:	7813      	ldrb	r3, [r2, #0]
     ada:	2b00      	cmp	r3, #0
     adc:	d1ce      	bne.n	a7c <regular_routine+0x40>
     ade:	4910      	ldr	r1, [pc, #64]	; (b20 <regular_routine+0xe4>)
     ae0:	780b      	ldrb	r3, [r1, #0]
     ae2:	3301      	adds	r3, #1
     ae4:	700b      	strb	r3, [r1, #0]
     ae6:	2301      	movs	r3, #1
     ae8:	7013      	strb	r3, [r2, #0]
     aea:	f7ff fec3 	bl	874 <cycle_pwm_led>
     aee:	e7c5      	b.n	a7c <regular_routine+0x40>
     af0:	2200      	movs	r2, #0
     af2:	e7da      	b.n	aaa <regular_routine+0x6e>
     af4:	20000040 	.word	0x20000040
     af8:	2000003d 	.word	0x2000003d
     afc:	2000004c 	.word	0x2000004c
     b00:	20000041 	.word	0x20000041
     b04:	2000003f 	.word	0x2000003f
     b08:	2000004b 	.word	0x2000004b
     b0c:	20000201 	.word	0x20000201
     b10:	20000044 	.word	0x20000044
     b14:	20000202 	.word	0x20000202
     b18:	20000048 	.word	0x20000048
     b1c:	20000045 	.word	0x20000045
     b20:	20000042 	.word	0x20000042

00000b24 <get_battery_level>:
     b24:	b530      	push	{r4, r5, lr}
     b26:	4b0f      	ldr	r3, [pc, #60]	; (b64 <get_battery_level+0x40>)
     b28:	781b      	ldrb	r3, [r3, #0]
     b2a:	2b00      	cmp	r3, #0
     b2c:	d10b      	bne.n	b46 <get_battery_level+0x22>
     b2e:	4a0e      	ldr	r2, [pc, #56]	; (b68 <get_battery_level+0x44>)
     b30:	4d0e      	ldr	r5, [pc, #56]	; (b6c <get_battery_level+0x48>)
     b32:	8814      	ldrh	r4, [r2, #0]
     b34:	480e      	ldr	r0, [pc, #56]	; (b70 <get_battery_level+0x4c>)
     b36:	490f      	ldr	r1, [pc, #60]	; (b74 <get_battery_level+0x50>)
     b38:	4a0f      	ldr	r2, [pc, #60]	; (b78 <get_battery_level+0x54>)
     b3a:	42ac      	cmp	r4, r5
     b3c:	d804      	bhi.n	b48 <get_battery_level+0x24>
     b3e:	2401      	movs	r4, #1
     b40:	700b      	strb	r3, [r1, #0]
     b42:	7004      	strb	r4, [r0, #0]
     b44:	7013      	strb	r3, [r2, #0]
     b46:	bd30      	pop	{r4, r5, pc}
     b48:	4d0c      	ldr	r5, [pc, #48]	; (b7c <get_battery_level+0x58>)
     b4a:	42ac      	cmp	r4, r5
     b4c:	d803      	bhi.n	b56 <get_battery_level+0x32>
     b4e:	7003      	strb	r3, [r0, #0]
     b50:	2001      	movs	r0, #1
     b52:	7008      	strb	r0, [r1, #0]
     b54:	e7f6      	b.n	b44 <get_battery_level+0x20>
     b56:	4d0a      	ldr	r5, [pc, #40]	; (b80 <get_battery_level+0x5c>)
     b58:	7003      	strb	r3, [r0, #0]
     b5a:	700b      	strb	r3, [r1, #0]
     b5c:	42ac      	cmp	r4, r5
     b5e:	d9f1      	bls.n	b44 <get_battery_level+0x20>
     b60:	2301      	movs	r3, #1
     b62:	e7ef      	b.n	b44 <get_battery_level+0x20>
     b64:	20000044 	.word	0x20000044
     b68:	20000094 	.word	0x20000094
     b6c:	00000c7a 	.word	0x00000c7a
     b70:	2000004a 	.word	0x2000004a
     b74:	20000049 	.word	0x20000049
     b78:	20000047 	.word	0x20000047
     b7c:	00000d2c 	.word	0x00000d2c
     b80:	00000e8e 	.word	0x00000e8e

00000b84 <system_logic>:
     b84:	b510      	push	{r4, lr}
     b86:	4b0b      	ldr	r3, [pc, #44]	; (bb4 <system_logic+0x30>)
     b88:	781a      	ldrb	r2, [r3, #0]
     b8a:	2a00      	cmp	r2, #0
     b8c:	d005      	beq.n	b9a <system_logic+0x16>
     b8e:	2200      	movs	r2, #0
     b90:	701a      	strb	r2, [r3, #0]
     b92:	f000 f987 	bl	ea4 <system_state>
     b96:	f7ff ff51 	bl	a3c <regular_routine>
     b9a:	4b07      	ldr	r3, [pc, #28]	; (bb8 <system_logic+0x34>)
     b9c:	781a      	ldrb	r2, [r3, #0]
     b9e:	2a00      	cmp	r2, #0
     ba0:	d007      	beq.n	bb2 <system_logic+0x2e>
     ba2:	2200      	movs	r2, #0
     ba4:	701a      	strb	r2, [r3, #0]
     ba6:	f7ff ff31 	bl	a0c <toggle_nsleep>
     baa:	f7ff facf 	bl	14c <sample_adc>
     bae:	f7ff ffb9 	bl	b24 <get_battery_level>
     bb2:	bd10      	pop	{r4, pc}
     bb4:	2000004e 	.word	0x2000004e
     bb8:	2000004f 	.word	0x2000004f

00000bbc <sys_tc_callback>:
	static int tick_count_100ms;
	static int tick_count_200ms;
	//static int tick_count_500ms;
	//static int tick_count_1000ms;

	tick_count_1ms++;
     bbc:	4919      	ldr	r1, [pc, #100]	; (c24 <sys_tc_callback+0x68>)
     bbe:	680b      	ldr	r3, [r1, #0]
     bc0:	1c5a      	adds	r2, r3, #1
     bc2:	600a      	str	r2, [r1, #0]
     bc4:	4b18      	ldr	r3, [pc, #96]	; (c28 <sys_tc_callback+0x6c>)
	
	
	//port_pin_toggle_output_level (LED0_PIN);					// visually check sys clock on PA16
	
	// Check for 10ms interval
	if (tick_count_1ms >= 10)
     bc6:	2a09      	cmp	r2, #9
     bc8:	dd07      	ble.n	bda <sys_tc_callback+0x1e>
	{
		tick_count_10ms++;
     bca:	681a      	ldr	r2, [r3, #0]
     bcc:	3201      	adds	r2, #1
     bce:	601a      	str	r2, [r3, #0]
		tick_count_1ms = 0;
     bd0:	2200      	movs	r2, #0
     bd2:	600a      	str	r2, [r1, #0]
		SYS_TICK_10MS = true;									// Flag for 10ms interval
     bd4:	2101      	movs	r1, #1
     bd6:	4a15      	ldr	r2, [pc, #84]	; (c2c <sys_tc_callback+0x70>)
     bd8:	7011      	strb	r1, [r2, #0]
		//port_pin_toggle_output_level (LED0_PIN);				// visually check sys clock on PA16
	}
	
	// Check for 50ms interval
	if (tick_count_10ms >= 5)
     bda:	6819      	ldr	r1, [r3, #0]
     bdc:	4a14      	ldr	r2, [pc, #80]	; (c30 <sys_tc_callback+0x74>)
     bde:	2904      	cmp	r1, #4
     be0:	dd07      	ble.n	bf2 <sys_tc_callback+0x36>
	{
		tick_count_50ms++;
     be2:	6811      	ldr	r1, [r2, #0]
     be4:	3101      	adds	r1, #1
     be6:	6011      	str	r1, [r2, #0]
		tick_count_10ms = 0;
     be8:	2100      	movs	r1, #0
     bea:	6019      	str	r1, [r3, #0]
		SYS_TICK_50MS = true;									// Flag for 50ms interval
     bec:	4b11      	ldr	r3, [pc, #68]	; (c34 <sys_tc_callback+0x78>)
     bee:	3101      	adds	r1, #1
     bf0:	7019      	strb	r1, [r3, #0]
		//port_pin_toggle_output_level (LED0_PIN);				// visually check sys clock on PA16
	}
	
	// Check for 100ms interval
	if (tick_count_50ms >= 2)
     bf2:	6811      	ldr	r1, [r2, #0]
     bf4:	4b10      	ldr	r3, [pc, #64]	; (c38 <sys_tc_callback+0x7c>)
     bf6:	2901      	cmp	r1, #1
     bf8:	dd07      	ble.n	c0a <sys_tc_callback+0x4e>
	{
		tick_count_100ms++;
     bfa:	6819      	ldr	r1, [r3, #0]
     bfc:	3101      	adds	r1, #1
     bfe:	6019      	str	r1, [r3, #0]
		tick_count_50ms = 0;
     c00:	2100      	movs	r1, #0
     c02:	6011      	str	r1, [r2, #0]
		SYS_TICK_100MS = true;									// Flag for 100ms interval
     c04:	4a0d      	ldr	r2, [pc, #52]	; (c3c <sys_tc_callback+0x80>)
     c06:	3101      	adds	r1, #1
     c08:	7011      	strb	r1, [r2, #0]
		//port_pin_toggle_output_level (LED0_PIN);				// visually check sys clock on PA16
	}
	
	
	// Check for 200ms interval
	if (tick_count_100ms >= 2)
     c0a:	681a      	ldr	r2, [r3, #0]
     c0c:	2a01      	cmp	r2, #1
     c0e:	dd08      	ble.n	c22 <sys_tc_callback+0x66>
	{
		tick_count_200ms++;
     c10:	490b      	ldr	r1, [pc, #44]	; (c40 <sys_tc_callback+0x84>)
     c12:	680a      	ldr	r2, [r1, #0]
     c14:	3201      	adds	r2, #1
     c16:	600a      	str	r2, [r1, #0]
		tick_count_100ms = 0;
     c18:	2200      	movs	r2, #0
     c1a:	601a      	str	r2, [r3, #0]
		SYS_TICK_200MS = true;									// Flag for 200ms interval
     c1c:	4b09      	ldr	r3, [pc, #36]	; (c44 <sys_tc_callback+0x88>)
     c1e:	3201      	adds	r2, #1
     c20:	701a      	strb	r2, [r3, #0]
		//tick_count_500ms = 0;
		//SYS_TICK_1000MS = true;                                 // Flag for 1000ms interval
		////port_pin_toggle_output_level (LED0_PIN);               // visually check sys clock on PA16
	//}
	
}
     c22:	4770      	bx	lr
     c24:	2000005c 	.word	0x2000005c
     c28:	20000058 	.word	0x20000058
     c2c:	2000004e 	.word	0x2000004e
     c30:	20000064 	.word	0x20000064
     c34:	20000050 	.word	0x20000050
     c38:	20000054 	.word	0x20000054
     c3c:	2000004d 	.word	0x2000004d
     c40:	20000060 	.word	0x20000060
     c44:	2000004f 	.word	0x2000004f

00000c48 <extint_detection_callback>:
void extint_detection_callback(void)
{
	//motor_enable();
	//LED_Off(LED0_PIN);

}
     c48:	4770      	bx	lr

00000c4a <configure_port_pins>:
{
     c4a:	b5f7      	push	{r0, r1, r2, r4, r5, r6, r7, lr}
{
	/* Sanity check arguments */
	Assert(config);

	/* Default configuration values */
	config->direction  = PORT_PIN_DIR_INPUT;
     c4c:	2600      	movs	r6, #0
	config_port_pin.input_pull = PORT_PIN_PULL_DOWN;
     c4e:	2702      	movs	r7, #2
	config_port_pin.direction  = PORT_PIN_DIR_OUTPUT;
     c50:	2501      	movs	r5, #1
     c52:	ac01      	add	r4, sp, #4
	port_pin_set_config(VBUS_PIN, &config_port_pin);
     c54:	0021      	movs	r1, r4
     c56:	201b      	movs	r0, #27
     c58:	7026      	strb	r6, [r4, #0]
	config->input_pull = PORT_PIN_PULL_UP;
	config->powersave  = false;
     c5a:	70a6      	strb	r6, [r4, #2]
	config_port_pin.input_pull = PORT_PIN_PULL_DOWN;
     c5c:	7067      	strb	r7, [r4, #1]
	port_pin_set_config(VBUS_PIN, &config_port_pin);
     c5e:	f000 f959 	bl	f14 <port_pin_set_config>
	port_pin_set_config(MOTOR_NSLEEP_PIN, &config_port_pin);
     c62:	0021      	movs	r1, r4
     c64:	2006      	movs	r0, #6
	config_port_pin.direction  = PORT_PIN_DIR_OUTPUT;
     c66:	7025      	strb	r5, [r4, #0]
	config_port_pin.input_pull = PORT_PIN_PULL_DOWN;							// START AT PULL DOWN.
     c68:	7067      	strb	r7, [r4, #1]
	port_pin_set_config(MOTOR_NSLEEP_PIN, &config_port_pin);
     c6a:	f000 f953 	bl	f14 <port_pin_set_config>
	port_pin_set_config(SWITCH_OFF_PIN, &config_port_pin);
     c6e:	0021      	movs	r1, r4
     c70:	2007      	movs	r0, #7
	config_port_pin.direction  = PORT_PIN_DIR_OUTPUT;
     c72:	7025      	strb	r5, [r4, #0]
	config_port_pin.input_pull = PORT_PIN_PULL_UP;								// START AT PULL UP.
     c74:	7065      	strb	r5, [r4, #1]
	port_pin_set_config(SWITCH_OFF_PIN, &config_port_pin);
     c76:	f000 f94d 	bl	f14 <port_pin_set_config>
	port_pin_set_config(BUTTON_2, &config_port_pin);
     c7a:	0021      	movs	r1, r4
     c7c:	200f      	movs	r0, #15
	config_port_pin.direction  = PORT_PIN_DIR_INPUT;
     c7e:	7026      	strb	r6, [r4, #0]
	config_port_pin.input_pull = PORT_PIN_PULL_UP;							// START AT PULL DOWN.
     c80:	7065      	strb	r5, [r4, #1]
	port_pin_set_config(BUTTON_2, &config_port_pin);
     c82:	f000 f947 	bl	f14 <port_pin_set_config>
	port_pin_set_config(BAT_CHARGED_PIN, &config_port_pin);
     c86:	0021      	movs	r1, r4
     c88:	200b      	movs	r0, #11
	config_port_pin.direction  = PORT_PIN_DIR_INPUT;
     c8a:	7026      	strb	r6, [r4, #0]
	config_port_pin.input_pull = PORT_PIN_PULL_DOWN;							// START AT PULL DOWN.
     c8c:	7067      	strb	r7, [r4, #1]
	port_pin_set_config(BAT_CHARGED_PIN, &config_port_pin);
     c8e:	f000 f941 	bl	f14 <port_pin_set_config>
	port_pin_set_config(CHARGN_OFF_PIN, &config_port_pin);
     c92:	0021      	movs	r1, r4
     c94:	2003      	movs	r0, #3
	config_port_pin.direction  = PORT_PIN_DIR_OUTPUT;
     c96:	7025      	strb	r5, [r4, #0]
	config_port_pin.input_pull = PORT_PIN_PULL_DOWN;							// START AT PULL DOWN.
     c98:	7067      	strb	r7, [r4, #1]
	port_pin_set_config(CHARGN_OFF_PIN, &config_port_pin);
     c9a:	f000 f93b 	bl	f14 <port_pin_set_config>
	port_pin_set_config(SAMPLE_ADC_PIN, &config_port_pin);
     c9e:	0038      	movs	r0, r7
     ca0:	0021      	movs	r1, r4
	config_port_pin.direction  = PORT_PIN_DIR_INPUT;
     ca2:	7026      	strb	r6, [r4, #0]
	config_port_pin.input_pull = PORT_PIN_PULL_DOWN;							// START AT PULL DOWN.
     ca4:	7067      	strb	r7, [r4, #1]
	port_pin_set_config(SAMPLE_ADC_PIN, &config_port_pin);
     ca6:	f000 f935 	bl	f14 <port_pin_set_config>
	port_pin_set_config(XPLAINED_LED, &config_port_pin);
     caa:	0021      	movs	r1, r4
     cac:	2010      	movs	r0, #16
	config_port_pin.direction  = PORT_PIN_DIR_OUTPUT;
     cae:	7025      	strb	r5, [r4, #0]
	port_pin_set_config(XPLAINED_LED, &config_port_pin);
     cb0:	f000 f930 	bl	f14 <port_pin_set_config>
	port_pin_set_config(BUTTON_1, &config_port_pin);
     cb4:	0021      	movs	r1, r4
     cb6:	200e      	movs	r0, #14
	config_port_pin.direction  = PORT_PIN_DIR_INPUT;
     cb8:	7026      	strb	r6, [r4, #0]
	config_port_pin.input_pull = PORT_PIN_PULL_UP;
     cba:	7065      	strb	r5, [r4, #1]
	port_pin_set_config(BUTTON_1, &config_port_pin);
     cbc:	f000 f92a 	bl	f14 <port_pin_set_config>
}
     cc0:	bdf7      	pop	{r0, r1, r2, r4, r5, r6, r7, pc}
	...

00000cc4 <configure_system_tc>:
{
	/* Sanity check arguments */
	Assert(config);

	/* Write default config to config struct */
	config->clock_source               = GCLK_GENERATOR_0;
     cc4:	2300      	movs	r3, #0
 {
     cc6:	b510      	push	{r4, lr}
     cc8:	b08e      	sub	sp, #56	; 0x38
     cca:	aa01      	add	r2, sp, #4

	config->pwm_channel[TC_COMPARE_CAPTURE_CHANNEL_1].enabled = false;
	config->pwm_channel[TC_COMPARE_CAPTURE_CHANNEL_1].pin_out = 0;
	config->pwm_channel[TC_COMPARE_CAPTURE_CHANNEL_1].pin_mux = 0;

	config->counter_16_bit.value                   = 0x0000;
     ccc:	8513      	strh	r3, [r2, #40]	; 0x28
	config->clock_source               = GCLK_GENERATOR_0;
     cce:	7013      	strb	r3, [r2, #0]
	config->wave_generation            = TC_WAVE_GENERATION_NORMAL_FREQ;
     cd0:	7193      	strb	r3, [r2, #6]
	config->reload_action              = TC_RELOAD_ACTION_GCLK;
     cd2:	8113      	strh	r3, [r2, #8]
	config->run_in_standby             = false;
     cd4:	7053      	strb	r3, [r2, #1]
	config->waveform_invert_output     = TC_WAVEFORM_INVERT_OUTPUT_NONE;
     cd6:	7293      	strb	r3, [r2, #10]
	config->enable_capture_on_channel[TC_COMPARE_CAPTURE_CHANNEL_0] = false;
     cd8:	72d3      	strb	r3, [r2, #11]
	config->enable_capture_on_channel[TC_COMPARE_CAPTURE_CHANNEL_1] = false;
     cda:	7313      	strb	r3, [r2, #12]
	config->count_direction            = TC_COUNT_DIRECTION_UP;
     cdc:	7393      	strb	r3, [r2, #14]
	config->oneshot                    = false;
     cde:	7353      	strb	r3, [r2, #13]
	config->pwm_channel[TC_COMPARE_CAPTURE_CHANNEL_0].pin_out = 0;
     ce0:	6153      	str	r3, [r2, #20]
	config->pwm_channel[TC_COMPARE_CAPTURE_CHANNEL_0].pin_mux = 0;
     ce2:	6193      	str	r3, [r2, #24]
	config->pwm_channel[TC_COMPARE_CAPTURE_CHANNEL_1].enabled = false;
     ce4:	7713      	strb	r3, [r2, #28]
	config->pwm_channel[TC_COMPARE_CAPTURE_CHANNEL_1].pin_out = 0;
     ce6:	6213      	str	r3, [r2, #32]
	config->pwm_channel[TC_COMPARE_CAPTURE_CHANNEL_1].pin_mux = 0;
     ce8:	6253      	str	r3, [r2, #36]	; 0x24
	config->counter_16_bit.compare_capture_channel\
		[TC_COMPARE_CAPTURE_CHANNEL_0]                        = 0x0000;
     cea:	8553      	strh	r3, [r2, #42]	; 0x2a
	config->counter_16_bit.compare_capture_channel\
		[TC_COMPARE_CAPTURE_CHANNEL_1]                        = 0x0000;
     cec:	8593      	strh	r3, [r2, #44]	; 0x2c
	 config_tc.counter_size = TC_COUNTER_SIZE;
     cee:	3304      	adds	r3, #4
     cf0:	7093      	strb	r3, [r2, #2]
	 config_tc.clock_prescaler = TC_CLOCK_PRESCALER;
     cf2:	23a0      	movs	r3, #160	; 0xa0
     cf4:	00db      	lsls	r3, r3, #3
     cf6:	8093      	strh	r3, [r2, #4]
	 config_tc.counter_8_bit.period = SYSTEM_TC_PERIOD_VALUE;
     cf8:	232d      	movs	r3, #45	; 0x2d
     cfa:	216f      	movs	r1, #111	; 0x6f
     cfc:	446b      	add	r3, sp
     cfe:	7019      	strb	r1, [r3, #0]
	 config_tc.pwm_channel[TC_COMPARE_CAPTURE_CHANNEL_0].enabled = true;
     d00:	2301      	movs	r3, #1
	 tc_init (&system_timer_instance, SYSTEM_TC, &config_tc);
     d02:	4c08      	ldr	r4, [pc, #32]	; (d24 <configure_system_tc+0x60>)
	 config_tc.pwm_channel[TC_COMPARE_CAPTURE_CHANNEL_0].enabled = true;
     d04:	7413      	strb	r3, [r2, #16]
	 tc_init (&system_timer_instance, SYSTEM_TC, &config_tc);
     d06:	4908      	ldr	r1, [pc, #32]	; (d28 <configure_system_tc+0x64>)
     d08:	0020      	movs	r0, r4
     d0a:	f001 f965 	bl	1fd8 <tc_init>
     d0e:	6823      	ldr	r3, [r4, #0]
	return (tc_module->STATUS.reg & TC_STATUS_SYNCBUSY);
     d10:	7bda      	ldrb	r2, [r3, #15]
	Assert(module_inst->hw);

	/* Get a pointer to the module's hardware instance */
	TcCount8 *const tc_module = &(module_inst->hw->COUNT8);

	while (tc_is_syncing(module_inst)) {
     d12:	b252      	sxtb	r2, r2
     d14:	2a00      	cmp	r2, #0
     d16:	dbfb      	blt.n	d10 <configure_system_tc+0x4c>
		/* Wait for sync */
	}

	/* Enable TC module */
	tc_module->CTRLA.reg |= TC_CTRLA_ENABLE;
     d18:	2202      	movs	r2, #2
     d1a:	8819      	ldrh	r1, [r3, #0]
     d1c:	430a      	orrs	r2, r1
     d1e:	801a      	strh	r2, [r3, #0]
 }
     d20:	b00e      	add	sp, #56	; 0x38
     d22:	bd10      	pop	{r4, pc}
     d24:	20000124 	.word	0x20000124
     d28:	42001800 	.word	0x42001800

00000d2c <system_tc_callbacks>:
{
     d2c:	b510      	push	{r4, lr}
	tc_register_callback (&system_timer_instance, sys_tc_callback,
     d2e:	4c0c      	ldr	r4, [pc, #48]	; (d60 <system_tc_callbacks+0x34>)
     d30:	2200      	movs	r2, #0
     d32:	490c      	ldr	r1, [pc, #48]	; (d64 <system_tc_callbacks+0x38>)
     d34:	0020      	movs	r0, r4
     d36:	f001 f8f2 	bl	1f1e <tc_register_callback>
	/* Sanity check arguments */
	Assert(module);


	/* Enable interrupts for this TC module */
	system_interrupt_enable(_tc_interrupt_get_interrupt_vector(_tc_get_inst_index(module->hw)));
     d3a:	6820      	ldr	r0, [r4, #0]
     d3c:	f001 f93a 	bl	1fb4 <_tc_get_inst_index>
	return (enum system_interrupt_vector)tc_interrupt_vectors[inst_num];
     d40:	4b09      	ldr	r3, [pc, #36]	; (d68 <system_tc_callbacks+0x3c>)
 * \param[in] vector Interrupt vector to enable
 */
static inline void system_interrupt_enable(
		const enum system_interrupt_vector vector)
{
	NVIC->ISER[0] = (uint32_t)(1 << ((uint32_t)vector & 0x0000001f));
     d42:	5c1a      	ldrb	r2, [r3, r0]
     d44:	231f      	movs	r3, #31
     d46:	401a      	ands	r2, r3
     d48:	3b1e      	subs	r3, #30
     d4a:	0019      	movs	r1, r3
     d4c:	4091      	lsls	r1, r2
     d4e:	4a07      	ldr	r2, [pc, #28]	; (d6c <system_tc_callbacks+0x40>)
     d50:	6011      	str	r1, [r2, #0]
	else if (callback_type == TC_CALLBACK_CC_CHANNEL1) {
		module->enable_callback_mask |= TC_INTFLAG_MC(2);
		module->hw->COUNT8.INTENSET.reg = TC_INTFLAG_MC(2);
	}
	else {
		module->enable_callback_mask |= (1 << callback_type);
     d52:	7e62      	ldrb	r2, [r4, #25]
     d54:	431a      	orrs	r2, r3
     d56:	7662      	strb	r2, [r4, #25]
		module->hw->COUNT8.INTENSET.reg = (1 << callback_type);
     d58:	6822      	ldr	r2, [r4, #0]
     d5a:	7353      	strb	r3, [r2, #13]
}
     d5c:	bd10      	pop	{r4, pc}
     d5e:	46c0      	nop			; (mov r8, r8)
     d60:	20000124 	.word	0x20000124
     d64:	00000bbd 	.word	0x00000bbd
     d68:	000028f0 	.word	0x000028f0
     d6c:	e000e100 	.word	0xe000e100

00000d70 <configure_extint_channel>:
{
     d70:	b51f      	push	{r0, r1, r2, r3, r4, lr}
	extint_chan_get_config_defaults(&config_extint_chan);
     d72:	ac01      	add	r4, sp, #4
     d74:	0020      	movs	r0, r4
     d76:	f7ff fc3f 	bl	5f8 <extint_chan_get_config_defaults>
	config_extint_chan.gpio_pin           = PIN_PA15A_EIC_EXTINT1;
     d7a:	230f      	movs	r3, #15
     d7c:	9301      	str	r3, [sp, #4]
	config_extint_chan.gpio_pin_mux       = MUX_PA15A_EIC_EXTINT1;
     d7e:	2300      	movs	r3, #0
	config_extint_chan.wake_if_sleeping   = true;
     d80:	2001      	movs	r0, #1
	config_extint_chan.gpio_pin_mux       = MUX_PA15A_EIC_EXTINT1;
     d82:	6063      	str	r3, [r4, #4]
	extint_chan_set_config(BUTTON_0_EIC_LINE_custom, &config_extint_chan);
     d84:	0021      	movs	r1, r4
	config_extint_chan.detection_criteria = EXTINT_DETECT_BOTH;
     d86:	3303      	adds	r3, #3
	config_extint_chan.wake_if_sleeping   = true;
     d88:	7260      	strb	r0, [r4, #9]
	config_extint_chan.gpio_pin_pull      = EXTINT_PULL_UP;
     d8a:	7220      	strb	r0, [r4, #8]
	config_extint_chan.detection_criteria = EXTINT_DETECT_BOTH;
     d8c:	72e3      	strb	r3, [r4, #11]
	extint_chan_set_config(BUTTON_0_EIC_LINE_custom, &config_extint_chan);
     d8e:	f7ff fc3d 	bl	60c <extint_chan_set_config>
}
     d92:	bd1f      	pop	{r0, r1, r2, r3, r4, pc}

00000d94 <configure_extint_callbacks>:
{
     d94:	b510      	push	{r4, lr}
	extint_register_callback(extint_detection_callback,
     d96:	2200      	movs	r2, #0
     d98:	2101      	movs	r1, #1
     d9a:	4804      	ldr	r0, [pc, #16]	; (dac <configure_extint_callbacks+0x18>)
     d9c:	f7ff fba8 	bl	4f0 <extint_register_callback>
	extint_chan_enable_callback(BUTTON_0_EIC_LINE_custom,
     da0:	2100      	movs	r1, #0
     da2:	2001      	movs	r0, #1
     da4:	f7ff fbb8 	bl	518 <extint_chan_enable_callback>
}
     da8:	bd10      	pop	{r4, pc}
     daa:	46c0      	nop			; (mov r8, r8)
     dac:	00000c49 	.word	0x00000c49

00000db0 <startup_default_pin_state>:

	/* Set the pin to high or low atomically based on the requested level */
	if (level) {
		port_base->OUTSET.reg = pin_mask;
	} else {
		port_base->OUTCLR.reg = pin_mask;
     db0:	2240      	movs	r2, #64	; 0x40
     db2:	4b07      	ldr	r3, [pc, #28]	; (dd0 <startup_default_pin_state+0x20>)
     db4:	615a      	str	r2, [r3, #20]
		port_base->OUTSET.reg = pin_mask;
     db6:	1892      	adds	r2, r2, r2
     db8:	619a      	str	r2, [r3, #24]
		port_base->OUTCLR.reg = pin_mask;
     dba:	2280      	movs	r2, #128	; 0x80
     dbc:	0212      	lsls	r2, r2, #8
     dbe:	615a      	str	r2, [r3, #20]
     dc0:	2280      	movs	r2, #128	; 0x80
     dc2:	0112      	lsls	r2, r2, #4
     dc4:	615a      	str	r2, [r3, #20]
		port_base->OUTSET.reg = pin_mask;
     dc6:	2208      	movs	r2, #8
     dc8:	619a      	str	r2, [r3, #24]
		port_base->OUTCLR.reg = pin_mask;
     dca:	3a04      	subs	r2, #4
     dcc:	615a      	str	r2, [r3, #20]
	 port_pin_set_output_level(SWITCH_OFF_PIN,HIGH); // at high rev 2
	 port_pin_set_output_level(BUTTON_2,LOW);
	 port_pin_set_output_level(BAT_CHARGED_PIN,LOW);
	 port_pin_set_output_level(CHARGN_OFF_PIN,HIGH);
	 port_pin_set_output_level(SAMPLE_ADC_PIN,LOW);
 }
     dce:	4770      	bx	lr
     dd0:	41004400 	.word	0x41004400

00000dd4 <startup_sys_configs>:


/************************************************************************/
/* SYSTEM startup function call (config functions)						*/
/************************************************************************/
void startup_sys_configs(void){
     dd4:	b510      	push	{r4, lr}
	system_init();									// System Initialize
     dd6:	f000 fe74 	bl	1ac2 <system_init>
	cpu_irq_enable();
     dda:	2201      	movs	r2, #1
     ddc:	4b0c      	ldr	r3, [pc, #48]	; (e10 <startup_sys_configs+0x3c>)
     dde:	701a      	strb	r2, [r3, #0]
  \details Ensures the apparent order of the explicit memory operations before
           and after the instruction, without ensuring their completion.
 */
__STATIC_FORCEINLINE void __DMB(void)
{
  __ASM volatile ("dmb 0xF":::"memory");
     de0:	f3bf 8f5f 	dmb	sy
  __ASM volatile ("cpsie i" : : : "memory");
     de4:	b662      	cpsie	i
	system_interrupt_enable_global();				// System Interrupts
	configure_port_pins();							// System PORTs
     de6:	f7ff ff30 	bl	c4a <configure_port_pins>
	startup_default_pin_state();
     dea:	f7ff ffe1 	bl	db0 <startup_default_pin_state>
	i2c_master_setup();								// Startup I2C
     dee:	f001 fc3b 	bl	2668 <i2c_master_setup>


	configure_system_tc();							// System Clock
     df2:	f7ff ff67 	bl	cc4 <configure_system_tc>
	system_tc_callbacks();							// System Clock Callback
     df6:	f7ff ff99 	bl	d2c <system_tc_callbacks>
	configure_pwm_tcc();							// Startup PWM
     dfa:	f7ff fcf9 	bl	7f0 <configure_pwm_tcc>
	configure_adc();
     dfe:	f7ff f983 	bl	108 <configure_adc>
	configure_pwm_generator();
     e02:	f7ff fd5b 	bl	8bc <configure_pwm_generator>


	configure_extint_channel();
     e06:	f7ff ffb3 	bl	d70 <configure_extint_channel>
	configure_extint_callbacks();
     e0a:	f7ff ffc3 	bl	d94 <configure_extint_callbacks>
	extint_detection_callback();


     e0e:	bd10      	pop	{r4, pc}
     e10:	20000010 	.word	0x20000010

00000e14 <update_battery_states>:
	return (port_base->IN.reg & pin_mask);
     e14:	2101      	movs	r1, #1
     e16:	4b06      	ldr	r3, [pc, #24]	; (e30 <update_battery_states+0x1c>)
#define CHARGED_STATE port_pin_get_input_level(BAT_CHARGED_PIN)
//#define CHARGN_OFF_STATE port_pin_get_input_level(CHARGN_OFF_PIN)


void update_battery_states(void) {
  Vbus_State = VBUS_STATE;
     e18:	4806      	ldr	r0, [pc, #24]	; (e34 <update_battery_states+0x20>)
     e1a:	6a1a      	ldr	r2, [r3, #32]
     e1c:	0ed2      	lsrs	r2, r2, #27
     e1e:	400a      	ands	r2, r1
     e20:	7002      	strb	r2, [r0, #0]
     e22:	6a1b      	ldr	r3, [r3, #32]
  Charged_State = CHARGED_STATE;
     e24:	4a04      	ldr	r2, [pc, #16]	; (e38 <update_battery_states+0x24>)
     e26:	0adb      	lsrs	r3, r3, #11
     e28:	400b      	ands	r3, r1
     e2a:	7013      	strb	r3, [r2, #0]
}
     e2c:	4770      	bx	lr
     e2e:	46c0      	nop			; (mov r8, r8)
     e30:	41004400 	.word	0x41004400
     e34:	20000201 	.word	0x20000201
     e38:	20000203 	.word	0x20000203

00000e3c <display_battery_state>:

/************************************************************************/
/* Indication LED Control                                               */
/************************************************************************/

void display_battery_state(void) {
     e3c:	b510      	push	{r4, lr}
  2. Steady red light when device has a low battery
  3. Blinking green light when device is charging
  4. Steady green light when the device is at least 100% charged.
  */

	if (Vbus_State) {
     e3e:	4b13      	ldr	r3, [pc, #76]	; (e8c <display_battery_state+0x50>)
     e40:	781b      	ldrb	r3, [r3, #0]
     e42:	2b00      	cmp	r3, #0
     e44:	d009      	beq.n	e5a <display_battery_state+0x1e>
	
		if (!Charged_State) {
     e46:	4b12      	ldr	r3, [pc, #72]	; (e90 <display_battery_state+0x54>)
     e48:	781b      	ldrb	r3, [r3, #0]
     e4a:	2b00      	cmp	r3, #0
     e4c:	d102      	bne.n	e54 <display_battery_state+0x18>
			set_battery_charge_routine();						//  blink
     e4e:	f001 faa9 	bl	23a4 <set_battery_charge_routine>
					set_color_yellow_indication();			// ideal situation
					}	
		}else{
		}
	}
}
     e52:	bd10      	pop	{r4, pc}
			set_color_green_indication();
     e54:	f001 fa54 	bl	2300 <set_color_green_indication>
     e58:	e7fb      	b.n	e52 <display_battery_state+0x16>
		if (!motor_running){
     e5a:	4b0e      	ldr	r3, [pc, #56]	; (e94 <display_battery_state+0x58>)
     e5c:	781b      	ldrb	r3, [r3, #0]
     e5e:	2b00      	cmp	r3, #0
     e60:	d1f7      	bne.n	e52 <display_battery_state+0x16>
				if (BATTERY_LOWEST) {
     e62:	4b0d      	ldr	r3, [pc, #52]	; (e98 <display_battery_state+0x5c>)
     e64:	781b      	ldrb	r3, [r3, #0]
     e66:	2b00      	cmp	r3, #0
     e68:	d002      	beq.n	e70 <display_battery_state+0x34>
					set_battery_low_routine();				//  blink
     e6a:	f001 fae5 	bl	2438 <set_battery_low_routine>
     e6e:	e7f0      	b.n	e52 <display_battery_state+0x16>
					} else if (BATTERY_LOW) {
     e70:	4b0a      	ldr	r3, [pc, #40]	; (e9c <display_battery_state+0x60>)
     e72:	781b      	ldrb	r3, [r3, #0]
     e74:	2b00      	cmp	r3, #0
     e76:	d002      	beq.n	e7e <display_battery_state+0x42>
					set_color_red_indication();
     e78:	f001 fa5c 	bl	2334 <set_color_red_indication>
     e7c:	e7e9      	b.n	e52 <display_battery_state+0x16>
					} else if (BATTERY_CHARGED) {
     e7e:	4b08      	ldr	r3, [pc, #32]	; (ea0 <display_battery_state+0x64>)
     e80:	781b      	ldrb	r3, [r3, #0]
     e82:	2b00      	cmp	r3, #0
     e84:	d1e6      	bne.n	e54 <display_battery_state+0x18>
					set_color_yellow_indication();			// ideal situation
     e86:	f001 fa71 	bl	236c <set_color_yellow_indication>
}
     e8a:	e7e2      	b.n	e52 <display_battery_state+0x16>
     e8c:	20000201 	.word	0x20000201
     e90:	20000203 	.word	0x20000203
     e94:	20000044 	.word	0x20000044
     e98:	2000004a 	.word	0x2000004a
     e9c:	20000049 	.word	0x20000049
     ea0:	20000047 	.word	0x20000047

00000ea4 <system_state>:

/************************************************************************/
/* STATE MACHINE		                                                */
/************************************************************************/

void system_state(void) {
     ea4:	b510      	push	{r4, lr}
  update_battery_states();
     ea6:	f7ff ffb5 	bl	e14 <update_battery_states>
  display_battery_state();
     eaa:	f7ff ffc7 	bl	e3c <display_battery_state>
     eae:	bd10      	pop	{r4, pc}

00000eb0 <cpu_irq_enter_critical>:
     eb0:	4b09      	ldr	r3, [pc, #36]	; (ed8 <cpu_irq_enter_critical+0x28>)
     eb2:	6819      	ldr	r1, [r3, #0]
     eb4:	2900      	cmp	r1, #0
     eb6:	d10b      	bne.n	ed0 <cpu_irq_enter_critical+0x20>
     eb8:	f3ef 8010 	mrs	r0, PRIMASK
     ebc:	4a07      	ldr	r2, [pc, #28]	; (edc <cpu_irq_enter_critical+0x2c>)
     ebe:	2800      	cmp	r0, #0
     ec0:	d105      	bne.n	ece <cpu_irq_enter_critical+0x1e>
     ec2:	b672      	cpsid	i
     ec4:	f3bf 8f5f 	dmb	sy
     ec8:	4905      	ldr	r1, [pc, #20]	; (ee0 <cpu_irq_enter_critical+0x30>)
     eca:	7008      	strb	r0, [r1, #0]
     ecc:	2101      	movs	r1, #1
     ece:	7011      	strb	r1, [r2, #0]
     ed0:	681a      	ldr	r2, [r3, #0]
     ed2:	3201      	adds	r2, #1
     ed4:	601a      	str	r2, [r3, #0]
     ed6:	4770      	bx	lr
     ed8:	20000068 	.word	0x20000068
     edc:	2000006c 	.word	0x2000006c
     ee0:	20000010 	.word	0x20000010

00000ee4 <cpu_irq_leave_critical>:
     ee4:	4b08      	ldr	r3, [pc, #32]	; (f08 <cpu_irq_leave_critical+0x24>)
     ee6:	681a      	ldr	r2, [r3, #0]
     ee8:	3a01      	subs	r2, #1
     eea:	601a      	str	r2, [r3, #0]
     eec:	681b      	ldr	r3, [r3, #0]
     eee:	2b00      	cmp	r3, #0
     ef0:	d109      	bne.n	f06 <cpu_irq_leave_critical+0x22>
     ef2:	4b06      	ldr	r3, [pc, #24]	; (f0c <cpu_irq_leave_critical+0x28>)
     ef4:	781b      	ldrb	r3, [r3, #0]
     ef6:	2b00      	cmp	r3, #0
     ef8:	d005      	beq.n	f06 <cpu_irq_leave_critical+0x22>
     efa:	2201      	movs	r2, #1
     efc:	4b04      	ldr	r3, [pc, #16]	; (f10 <cpu_irq_leave_critical+0x2c>)
     efe:	701a      	strb	r2, [r3, #0]
     f00:	f3bf 8f5f 	dmb	sy
     f04:	b662      	cpsie	i
     f06:	4770      	bx	lr
     f08:	20000068 	.word	0x20000068
     f0c:	2000006c 	.word	0x2000006c
     f10:	20000010 	.word	0x20000010

00000f14 <port_pin_set_config>:
     f14:	b507      	push	{r0, r1, r2, lr}
     f16:	2280      	movs	r2, #128	; 0x80
     f18:	ab01      	add	r3, sp, #4
     f1a:	701a      	strb	r2, [r3, #0]
     f1c:	780a      	ldrb	r2, [r1, #0]
     f1e:	705a      	strb	r2, [r3, #1]
     f20:	784a      	ldrb	r2, [r1, #1]
     f22:	709a      	strb	r2, [r3, #2]
     f24:	788a      	ldrb	r2, [r1, #2]
     f26:	0019      	movs	r1, r3
     f28:	70da      	strb	r2, [r3, #3]
     f2a:	f000 fdb5 	bl	1a98 <system_pinmux_pin_set_config>
     f2e:	bd07      	pop	{r0, r1, r2, pc}

00000f30 <_i2c_master_wait_for_sync>:
     f30:	2307      	movs	r3, #7
     f32:	6801      	ldr	r1, [r0, #0]
     f34:	69ca      	ldr	r2, [r1, #28]
     f36:	421a      	tst	r2, r3
     f38:	d1fc      	bne.n	f34 <_i2c_master_wait_for_sync+0x4>
     f3a:	4770      	bx	lr

00000f3c <i2c_master_init>:
     f3c:	b5f0      	push	{r4, r5, r6, r7, lr}
     f3e:	0005      	movs	r5, r0
     f40:	b085      	sub	sp, #20
     f42:	6029      	str	r1, [r5, #0]
     f44:	0008      	movs	r0, r1
     f46:	0014      	movs	r4, r2
     f48:	000e      	movs	r6, r1
     f4a:	f000 faf7 	bl	153c <_sercom_get_sercom_inst_index>
     f4e:	2701      	movs	r7, #1
     f50:	1c83      	adds	r3, r0, #2
     f52:	409f      	lsls	r7, r3
     f54:	003b      	movs	r3, r7
     f56:	4a5c      	ldr	r2, [pc, #368]	; (10c8 <i2c_master_init+0x18c>)
     f58:	300e      	adds	r0, #14
     f5a:	6a11      	ldr	r1, [r2, #32]
     f5c:	b2c7      	uxtb	r7, r0
     f5e:	430b      	orrs	r3, r1
     f60:	6213      	str	r3, [r2, #32]
     f62:	7b23      	ldrb	r3, [r4, #12]
     f64:	aa02      	add	r2, sp, #8
     f66:	0011      	movs	r1, r2
     f68:	0038      	movs	r0, r7
     f6a:	7013      	strb	r3, [r2, #0]
     f6c:	f000 fd32 	bl	19d4 <system_gclk_chan_set_config>
     f70:	0038      	movs	r0, r7
     f72:	f000 fcf3 	bl	195c <system_gclk_chan_enable>
     f76:	7b20      	ldrb	r0, [r4, #12]
     f78:	2100      	movs	r1, #0
     f7a:	f000 fa67 	bl	144c <sercom_set_gclk_generator>
     f7e:	6833      	ldr	r3, [r6, #0]
     f80:	201c      	movs	r0, #28
     f82:	079b      	lsls	r3, r3, #30
     f84:	d500      	bpl.n	f88 <i2c_master_init+0x4c>
     f86:	e09d      	b.n	10c4 <i2c_master_init+0x188>
     f88:	2201      	movs	r2, #1
     f8a:	6833      	ldr	r3, [r6, #0]
     f8c:	3817      	subs	r0, #23
     f8e:	401a      	ands	r2, r3
     f90:	9200      	str	r2, [sp, #0]
     f92:	d000      	beq.n	f96 <i2c_master_init+0x5a>
     f94:	e096      	b.n	10c4 <i2c_master_init+0x188>
     f96:	6828      	ldr	r0, [r5, #0]
     f98:	f000 fad0 	bl	153c <_sercom_get_sercom_inst_index>
     f9c:	0007      	movs	r7, r0
     f9e:	494b      	ldr	r1, [pc, #300]	; (10cc <i2c_master_init+0x190>)
     fa0:	f000 faea 	bl	1578 <_sercom_set_handler>
     fa4:	4b4a      	ldr	r3, [pc, #296]	; (10d0 <i2c_master_init+0x194>)
     fa6:	00bf      	lsls	r7, r7, #2
     fa8:	50fd      	str	r5, [r7, r3]
     faa:	466b      	mov	r3, sp
     fac:	781b      	ldrb	r3, [r3, #0]
     fae:	466a      	mov	r2, sp
     fb0:	762b      	strb	r3, [r5, #24]
     fb2:	466b      	mov	r3, sp
     fb4:	781b      	ldrb	r3, [r3, #0]
     fb6:	7812      	ldrb	r2, [r2, #0]
     fb8:	766b      	strb	r3, [r5, #25]
     fba:	466b      	mov	r3, sp
     fbc:	881b      	ldrh	r3, [r3, #0]
     fbe:	836b      	strh	r3, [r5, #26]
     fc0:	466b      	mov	r3, sp
     fc2:	881b      	ldrh	r3, [r3, #0]
     fc4:	83ab      	strh	r3, [r5, #28]
     fc6:	1dab      	adds	r3, r5, #6
     fc8:	77da      	strb	r2, [r3, #31]
     fca:	9b00      	ldr	r3, [sp, #0]
     fcc:	622b      	str	r3, [r5, #32]
     fce:	2314      	movs	r3, #20
     fd0:	6033      	str	r3, [r6, #0]
     fd2:	682f      	ldr	r7, [r5, #0]
     fd4:	ae03      	add	r6, sp, #12
     fd6:	0038      	movs	r0, r7
     fd8:	f000 fab0 	bl	153c <_sercom_get_sercom_inst_index>
     fdc:	2380      	movs	r3, #128	; 0x80
     fde:	7033      	strb	r3, [r6, #0]
     fe0:	466b      	mov	r3, sp
     fe2:	781b      	ldrb	r3, [r3, #0]
     fe4:	9001      	str	r0, [sp, #4]
     fe6:	7073      	strb	r3, [r6, #1]
     fe8:	2301      	movs	r3, #1
     fea:	70b3      	strb	r3, [r6, #2]
     fec:	466b      	mov	r3, sp
     fee:	781b      	ldrb	r3, [r3, #0]
     ff0:	69e0      	ldr	r0, [r4, #28]
     ff2:	70f3      	strb	r3, [r6, #3]
     ff4:	6a23      	ldr	r3, [r4, #32]
     ff6:	9300      	str	r3, [sp, #0]
     ff8:	2800      	cmp	r0, #0
     ffa:	d103      	bne.n	1004 <i2c_master_init+0xc8>
     ffc:	0001      	movs	r1, r0
     ffe:	0038      	movs	r0, r7
    1000:	f000 fa42 	bl	1488 <_sercom_get_default_pad>
    1004:	2302      	movs	r3, #2
    1006:	7030      	strb	r0, [r6, #0]
    1008:	0c00      	lsrs	r0, r0, #16
    100a:	b2c0      	uxtb	r0, r0
    100c:	0031      	movs	r1, r6
    100e:	7073      	strb	r3, [r6, #1]
    1010:	f000 fd42 	bl	1a98 <system_pinmux_pin_set_config>
    1014:	9b00      	ldr	r3, [sp, #0]
    1016:	2b00      	cmp	r3, #0
    1018:	d104      	bne.n	1024 <i2c_master_init+0xe8>
    101a:	2101      	movs	r1, #1
    101c:	0038      	movs	r0, r7
    101e:	f000 fa33 	bl	1488 <_sercom_get_default_pad>
    1022:	9000      	str	r0, [sp, #0]
    1024:	466b      	mov	r3, sp
    1026:	781b      	ldrb	r3, [r3, #0]
    1028:	0031      	movs	r1, r6
    102a:	7033      	strb	r3, [r6, #0]
    102c:	2302      	movs	r3, #2
    102e:	7073      	strb	r3, [r6, #1]
    1030:	9b00      	ldr	r3, [sp, #0]
    1032:	0c18      	lsrs	r0, r3, #16
    1034:	b2c0      	uxtb	r0, r0
    1036:	f000 fd2f 	bl	1a98 <system_pinmux_pin_set_config>
    103a:	8aa3      	ldrh	r3, [r4, #20]
    103c:	80eb      	strh	r3, [r5, #6]
    103e:	8ae3      	ldrh	r3, [r4, #22]
    1040:	812b      	strh	r3, [r5, #8]
    1042:	7e22      	ldrb	r2, [r4, #24]
    1044:	2380      	movs	r3, #128	; 0x80
    1046:	2a00      	cmp	r2, #0
    1048:	d106      	bne.n	1058 <i2c_master_init+0x11c>
    104a:	4b22      	ldr	r3, [pc, #136]	; (10d4 <i2c_master_init+0x198>)
    104c:	3202      	adds	r2, #2
    104e:	789b      	ldrb	r3, [r3, #2]
    1050:	4013      	ands	r3, r2
    1052:	1e5a      	subs	r2, r3, #1
    1054:	4193      	sbcs	r3, r2
    1056:	01db      	lsls	r3, r3, #7
    1058:	68a1      	ldr	r1, [r4, #8]
    105a:	6922      	ldr	r2, [r4, #16]
    105c:	430a      	orrs	r2, r1
    105e:	4313      	orrs	r3, r2
    1060:	1d62      	adds	r2, r4, #5
    1062:	7fd2      	ldrb	r2, [r2, #31]
    1064:	2a00      	cmp	r2, #0
    1066:	d002      	beq.n	106e <i2c_master_init+0x132>
    1068:	2280      	movs	r2, #128	; 0x80
    106a:	05d2      	lsls	r2, r2, #23
    106c:	4313      	orrs	r3, r2
    106e:	6aa2      	ldr	r2, [r4, #40]	; 0x28
    1070:	4313      	orrs	r3, r2
    1072:	0022      	movs	r2, r4
    1074:	322c      	adds	r2, #44	; 0x2c
    1076:	7812      	ldrb	r2, [r2, #0]
    1078:	2a00      	cmp	r2, #0
    107a:	d103      	bne.n	1084 <i2c_master_init+0x148>
    107c:	2280      	movs	r2, #128	; 0x80
    107e:	0492      	lsls	r2, r2, #18
    1080:	4291      	cmp	r1, r2
    1082:	d102      	bne.n	108a <i2c_master_init+0x14e>
    1084:	2280      	movs	r2, #128	; 0x80
    1086:	0512      	lsls	r2, r2, #20
    1088:	4313      	orrs	r3, r2
    108a:	0022      	movs	r2, r4
    108c:	322d      	adds	r2, #45	; 0x2d
    108e:	7812      	ldrb	r2, [r2, #0]
    1090:	2a00      	cmp	r2, #0
    1092:	d002      	beq.n	109a <i2c_master_init+0x15e>
    1094:	2280      	movs	r2, #128	; 0x80
    1096:	0412      	lsls	r2, r2, #16
    1098:	4313      	orrs	r3, r2
    109a:	342e      	adds	r4, #46	; 0x2e
    109c:	7822      	ldrb	r2, [r4, #0]
    109e:	2a00      	cmp	r2, #0
    10a0:	d002      	beq.n	10a8 <i2c_master_init+0x16c>
    10a2:	2280      	movs	r2, #128	; 0x80
    10a4:	03d2      	lsls	r2, r2, #15
    10a6:	4313      	orrs	r3, r2
    10a8:	683a      	ldr	r2, [r7, #0]
    10aa:	9801      	ldr	r0, [sp, #4]
    10ac:	4313      	orrs	r3, r2
    10ae:	603b      	str	r3, [r7, #0]
    10b0:	2380      	movs	r3, #128	; 0x80
    10b2:	300e      	adds	r0, #14
    10b4:	005b      	lsls	r3, r3, #1
    10b6:	607b      	str	r3, [r7, #4]
    10b8:	b2c0      	uxtb	r0, r0
    10ba:	f000 fc97 	bl	19ec <system_gclk_chan_get_hz>
    10be:	2323      	movs	r3, #35	; 0x23
    10c0:	2000      	movs	r0, #0
    10c2:	60fb      	str	r3, [r7, #12]
    10c4:	b005      	add	sp, #20
    10c6:	bdf0      	pop	{r4, r5, r6, r7, pc}
    10c8:	40000400 	.word	0x40000400
    10cc:	000012cd 	.word	0x000012cd
    10d0:	20000204 	.word	0x20000204
    10d4:	41002000 	.word	0x41002000

000010d8 <_i2c_master_address_response>:
    10d8:	2202      	movs	r2, #2
    10da:	6803      	ldr	r3, [r0, #0]
    10dc:	7e19      	ldrb	r1, [r3, #24]
    10de:	4211      	tst	r1, r2
    10e0:	d006      	beq.n	10f0 <_i2c_master_address_response+0x18>
    10e2:	761a      	strb	r2, [r3, #24]
    10e4:	8b5b      	ldrh	r3, [r3, #26]
    10e6:	2041      	movs	r0, #65	; 0x41
    10e8:	4213      	tst	r3, r2
    10ea:	d10a      	bne.n	1102 <_i2c_master_address_response+0x2a>
    10ec:	2000      	movs	r0, #0
    10ee:	e008      	b.n	1102 <_i2c_master_address_response+0x2a>
    10f0:	8b5a      	ldrh	r2, [r3, #26]
    10f2:	0752      	lsls	r2, r2, #29
    10f4:	d5fa      	bpl.n	10ec <_i2c_master_address_response+0x14>
    10f6:	22c0      	movs	r2, #192	; 0xc0
    10f8:	2018      	movs	r0, #24
    10fa:	6859      	ldr	r1, [r3, #4]
    10fc:	0292      	lsls	r2, r2, #10
    10fe:	430a      	orrs	r2, r1
    1100:	605a      	str	r2, [r3, #4]
    1102:	4770      	bx	lr

00001104 <_i2c_master_wait_for_bus>:
    1104:	b570      	push	{r4, r5, r6, lr}
    1106:	2200      	movs	r2, #0
    1108:	2601      	movs	r6, #1
    110a:	2402      	movs	r4, #2
    110c:	6801      	ldr	r1, [r0, #0]
    110e:	7e0b      	ldrb	r3, [r1, #24]
    1110:	4033      	ands	r3, r6
    1112:	d102      	bne.n	111a <_i2c_master_wait_for_bus+0x16>
    1114:	7e0d      	ldrb	r5, [r1, #24]
    1116:	4225      	tst	r5, r4
    1118:	d001      	beq.n	111e <_i2c_master_wait_for_bus+0x1a>
    111a:	2000      	movs	r0, #0
    111c:	e005      	b.n	112a <_i2c_master_wait_for_bus+0x26>
    111e:	3201      	adds	r2, #1
    1120:	8903      	ldrh	r3, [r0, #8]
    1122:	b292      	uxth	r2, r2
    1124:	4293      	cmp	r3, r2
    1126:	d8f2      	bhi.n	110e <_i2c_master_wait_for_bus+0xa>
    1128:	2012      	movs	r0, #18
    112a:	bd70      	pop	{r4, r5, r6, pc}

0000112c <_i2c_master_send_hs_master_code>:
    112c:	2380      	movs	r3, #128	; 0x80
    112e:	b510      	push	{r4, lr}
    1130:	6804      	ldr	r4, [r0, #0]
    1132:	02db      	lsls	r3, r3, #11
    1134:	6862      	ldr	r2, [r4, #4]
    1136:	4313      	orrs	r3, r2
    1138:	6063      	str	r3, [r4, #4]
    113a:	6261      	str	r1, [r4, #36]	; 0x24
    113c:	f7ff ffe2 	bl	1104 <_i2c_master_wait_for_bus>
    1140:	2301      	movs	r3, #1
    1142:	7623      	strb	r3, [r4, #24]
    1144:	bd10      	pop	{r4, pc}
	...

00001148 <_i2c_master_write_packet>:
    1148:	b5f7      	push	{r0, r1, r2, r4, r5, r6, r7, lr}
    114a:	000f      	movs	r7, r1
    114c:	884b      	ldrh	r3, [r1, #2]
    114e:	0005      	movs	r5, r0
    1150:	9301      	str	r3, [sp, #4]
    1152:	6804      	ldr	r4, [r0, #0]
    1154:	f7ff feec 	bl	f30 <_i2c_master_wait_for_sync>
    1158:	7a7b      	ldrb	r3, [r7, #9]
    115a:	2b00      	cmp	r3, #0
    115c:	d003      	beq.n	1166 <_i2c_master_write_packet+0x1e>
    115e:	7ab9      	ldrb	r1, [r7, #10]
    1160:	0028      	movs	r0, r5
    1162:	f7ff ffe3 	bl	112c <_i2c_master_send_hs_master_code>
    1166:	6863      	ldr	r3, [r4, #4]
    1168:	4a24      	ldr	r2, [pc, #144]	; (11fc <_i2c_master_write_packet+0xb4>)
    116a:	4013      	ands	r3, r2
    116c:	6063      	str	r3, [r4, #4]
    116e:	7a7a      	ldrb	r2, [r7, #9]
    1170:	883b      	ldrh	r3, [r7, #0]
    1172:	7a39      	ldrb	r1, [r7, #8]
    1174:	005b      	lsls	r3, r3, #1
    1176:	0392      	lsls	r2, r2, #14
    1178:	4313      	orrs	r3, r2
    117a:	2900      	cmp	r1, #0
    117c:	d002      	beq.n	1184 <_i2c_master_write_packet+0x3c>
    117e:	2280      	movs	r2, #128	; 0x80
    1180:	0212      	lsls	r2, r2, #8
    1182:	4313      	orrs	r3, r2
    1184:	6263      	str	r3, [r4, #36]	; 0x24
    1186:	0028      	movs	r0, r5
    1188:	f7ff ffbc 	bl	1104 <_i2c_master_wait_for_bus>
    118c:	1e06      	subs	r6, r0, #0
    118e:	d115      	bne.n	11bc <_i2c_master_write_packet+0x74>
    1190:	0028      	movs	r0, r5
    1192:	f7ff ffa1 	bl	10d8 <_i2c_master_address_response>
    1196:	1e06      	subs	r6, r0, #0
    1198:	d110      	bne.n	11bc <_i2c_master_write_packet+0x74>
    119a:	9000      	str	r0, [sp, #0]
    119c:	9b00      	ldr	r3, [sp, #0]
    119e:	9a01      	ldr	r2, [sp, #4]
    11a0:	4293      	cmp	r3, r2
    11a2:	d10d      	bne.n	11c0 <_i2c_master_write_packet+0x78>
    11a4:	2600      	movs	r6, #0
    11a6:	7aab      	ldrb	r3, [r5, #10]
    11a8:	2b00      	cmp	r3, #0
    11aa:	d007      	beq.n	11bc <_i2c_master_write_packet+0x74>
    11ac:	0028      	movs	r0, r5
    11ae:	f7ff febf 	bl	f30 <_i2c_master_wait_for_sync>
    11b2:	23c0      	movs	r3, #192	; 0xc0
    11b4:	6862      	ldr	r2, [r4, #4]
    11b6:	029b      	lsls	r3, r3, #10
    11b8:	4313      	orrs	r3, r2
    11ba:	6063      	str	r3, [r4, #4]
    11bc:	0030      	movs	r0, r6
    11be:	bdfe      	pop	{r1, r2, r3, r4, r5, r6, r7, pc}
    11c0:	2220      	movs	r2, #32
    11c2:	8b63      	ldrh	r3, [r4, #26]
    11c4:	4213      	tst	r3, r2
    11c6:	d016      	beq.n	11f6 <_i2c_master_write_packet+0xae>
    11c8:	0028      	movs	r0, r5
    11ca:	f7ff feb1 	bl	f30 <_i2c_master_wait_for_sync>
    11ce:	687b      	ldr	r3, [r7, #4]
    11d0:	9a00      	ldr	r2, [sp, #0]
    11d2:	0028      	movs	r0, r5
    11d4:	5c9a      	ldrb	r2, [r3, r2]
    11d6:	0023      	movs	r3, r4
    11d8:	3328      	adds	r3, #40	; 0x28
    11da:	701a      	strb	r2, [r3, #0]
    11dc:	f7ff ff92 	bl	1104 <_i2c_master_wait_for_bus>
    11e0:	1e06      	subs	r6, r0, #0
    11e2:	d1e0      	bne.n	11a6 <_i2c_master_write_packet+0x5e>
    11e4:	9a00      	ldr	r2, [sp, #0]
    11e6:	8b63      	ldrh	r3, [r4, #26]
    11e8:	3201      	adds	r2, #1
    11ea:	9200      	str	r2, [sp, #0]
    11ec:	2204      	movs	r2, #4
    11ee:	4213      	tst	r3, r2
    11f0:	d0d4      	beq.n	119c <_i2c_master_write_packet+0x54>
    11f2:	261e      	movs	r6, #30
    11f4:	e7d7      	b.n	11a6 <_i2c_master_write_packet+0x5e>
    11f6:	2641      	movs	r6, #65	; 0x41
    11f8:	e7e0      	b.n	11bc <_i2c_master_write_packet+0x74>
    11fa:	46c0      	nop			; (mov r8, r8)
    11fc:	fffbffff 	.word	0xfffbffff

00001200 <i2c_master_write_packet_wait>:
    1200:	b510      	push	{r4, lr}
    1202:	8b82      	ldrh	r2, [r0, #28]
    1204:	0003      	movs	r3, r0
    1206:	2005      	movs	r0, #5
    1208:	2a00      	cmp	r2, #0
    120a:	d105      	bne.n	1218 <i2c_master_write_packet_wait+0x18>
    120c:	3201      	adds	r2, #1
    120e:	729a      	strb	r2, [r3, #10]
    1210:	72da      	strb	r2, [r3, #11]
    1212:	0018      	movs	r0, r3
    1214:	f7ff ff98 	bl	1148 <_i2c_master_write_packet>
    1218:	bd10      	pop	{r4, pc}

0000121a <_i2c_master_wait_for_sync>:
    121a:	2307      	movs	r3, #7
    121c:	6801      	ldr	r1, [r0, #0]
    121e:	69ca      	ldr	r2, [r1, #28]
    1220:	421a      	tst	r2, r3
    1222:	d1fc      	bne.n	121e <_i2c_master_wait_for_sync+0x4>
    1224:	4770      	bx	lr

00001226 <_i2c_master_read>:
    1226:	b570      	push	{r4, r5, r6, lr}
    1228:	6805      	ldr	r5, [r0, #0]
    122a:	0004      	movs	r4, r0
    122c:	682a      	ldr	r2, [r5, #0]
    122e:	8b46      	ldrh	r6, [r0, #26]
    1230:	8b83      	ldrh	r3, [r0, #28]
    1232:	1af6      	subs	r6, r6, r3
    1234:	8b83      	ldrh	r3, [r0, #28]
    1236:	b2b6      	uxth	r6, r6
    1238:	3b01      	subs	r3, #1
    123a:	b29b      	uxth	r3, r3
    123c:	8383      	strh	r3, [r0, #28]
    123e:	7ac3      	ldrb	r3, [r0, #11]
    1240:	0112      	lsls	r2, r2, #4
    1242:	d50a      	bpl.n	125a <_i2c_master_read+0x34>
    1244:	2b00      	cmp	r3, #0
    1246:	d00d      	beq.n	1264 <_i2c_master_read+0x3e>
    1248:	8b83      	ldrh	r3, [r0, #28]
    124a:	2b01      	cmp	r3, #1
    124c:	d10a      	bne.n	1264 <_i2c_master_read+0x3e>
    124e:	2380      	movs	r3, #128	; 0x80
    1250:	686a      	ldr	r2, [r5, #4]
    1252:	02db      	lsls	r3, r3, #11
    1254:	4313      	orrs	r3, r2
    1256:	606b      	str	r3, [r5, #4]
    1258:	e004      	b.n	1264 <_i2c_master_read+0x3e>
    125a:	2b00      	cmp	r3, #0
    125c:	d002      	beq.n	1264 <_i2c_master_read+0x3e>
    125e:	8b83      	ldrh	r3, [r0, #28]
    1260:	2b00      	cmp	r3, #0
    1262:	d0f4      	beq.n	124e <_i2c_master_read+0x28>
    1264:	8ba3      	ldrh	r3, [r4, #28]
    1266:	2b00      	cmp	r3, #0
    1268:	d10a      	bne.n	1280 <_i2c_master_read+0x5a>
    126a:	7aa3      	ldrb	r3, [r4, #10]
    126c:	2b00      	cmp	r3, #0
    126e:	d007      	beq.n	1280 <_i2c_master_read+0x5a>
    1270:	0020      	movs	r0, r4
    1272:	f7ff ffd2 	bl	121a <_i2c_master_wait_for_sync>
    1276:	23c0      	movs	r3, #192	; 0xc0
    1278:	686a      	ldr	r2, [r5, #4]
    127a:	029b      	lsls	r3, r3, #10
    127c:	4313      	orrs	r3, r2
    127e:	606b      	str	r3, [r5, #4]
    1280:	0020      	movs	r0, r4
    1282:	f7ff ffca 	bl	121a <_i2c_master_wait_for_sync>
    1286:	6a23      	ldr	r3, [r4, #32]
    1288:	3528      	adds	r5, #40	; 0x28
    128a:	199e      	adds	r6, r3, r6
    128c:	782b      	ldrb	r3, [r5, #0]
    128e:	b2db      	uxtb	r3, r3
    1290:	7033      	strb	r3, [r6, #0]
    1292:	bd70      	pop	{r4, r5, r6, pc}

00001294 <_i2c_master_write>:
    1294:	b570      	push	{r4, r5, r6, lr}
    1296:	6806      	ldr	r6, [r0, #0]
    1298:	0004      	movs	r4, r0
    129a:	8b73      	ldrh	r3, [r6, #26]
    129c:	075b      	lsls	r3, r3, #29
    129e:	d503      	bpl.n	12a8 <_i2c_master_write+0x14>
    12a0:	231e      	movs	r3, #30
    12a2:	3406      	adds	r4, #6
    12a4:	77e3      	strb	r3, [r4, #31]
    12a6:	bd70      	pop	{r4, r5, r6, pc}
    12a8:	8b45      	ldrh	r5, [r0, #26]
    12aa:	8b83      	ldrh	r3, [r0, #28]
    12ac:	3628      	adds	r6, #40	; 0x28
    12ae:	1aed      	subs	r5, r5, r3
    12b0:	8b83      	ldrh	r3, [r0, #28]
    12b2:	b2ad      	uxth	r5, r5
    12b4:	3b01      	subs	r3, #1
    12b6:	b29b      	uxth	r3, r3
    12b8:	8383      	strh	r3, [r0, #28]
    12ba:	f7ff ffae 	bl	121a <_i2c_master_wait_for_sync>
    12be:	6a23      	ldr	r3, [r4, #32]
    12c0:	195d      	adds	r5, r3, r5
    12c2:	782b      	ldrb	r3, [r5, #0]
    12c4:	b2db      	uxtb	r3, r3
    12c6:	7033      	strb	r3, [r6, #0]
    12c8:	e7ed      	b.n	12a6 <_i2c_master_write+0x12>
	...

000012cc <_i2c_master_interrupt_handler>:
    12cc:	b5f8      	push	{r3, r4, r5, r6, r7, lr}
    12ce:	4b5e      	ldr	r3, [pc, #376]	; (1448 <_i2c_master_interrupt_handler+0x17c>)
    12d0:	0080      	lsls	r0, r0, #2
    12d2:	58c4      	ldr	r4, [r0, r3]
    12d4:	6825      	ldr	r5, [r4, #0]
    12d6:	1da6      	adds	r6, r4, #6
    12d8:	682b      	ldr	r3, [r5, #0]
    12da:	7e62      	ldrb	r2, [r4, #25]
    12dc:	7e27      	ldrb	r7, [r4, #24]
    12de:	011b      	lsls	r3, r3, #4
    12e0:	4017      	ands	r7, r2
    12e2:	8b62      	ldrh	r2, [r4, #26]
    12e4:	0fdb      	lsrs	r3, r3, #31
    12e6:	2a00      	cmp	r2, #0
    12e8:	d12e      	bne.n	1348 <_i2c_master_interrupt_handler+0x7c>
    12ea:	8ba2      	ldrh	r2, [r4, #28]
    12ec:	2a00      	cmp	r2, #0
    12ee:	d02b      	beq.n	1348 <_i2c_master_interrupt_handler+0x7c>
    12f0:	2301      	movs	r3, #1
    12f2:	7e2a      	ldrb	r2, [r5, #24]
    12f4:	421a      	tst	r2, r3
    12f6:	d006      	beq.n	1306 <_i2c_master_interrupt_handler+0x3a>
    12f8:	2202      	movs	r2, #2
    12fa:	762b      	strb	r3, [r5, #24]
    12fc:	8b6b      	ldrh	r3, [r5, #26]
    12fe:	4013      	ands	r3, r2
    1300:	d010      	beq.n	1324 <_i2c_master_interrupt_handler+0x58>
    1302:	2341      	movs	r3, #65	; 0x41
    1304:	77f3      	strb	r3, [r6, #31]
    1306:	8ba3      	ldrh	r3, [r4, #28]
    1308:	b29b      	uxth	r3, r3
    130a:	8363      	strh	r3, [r4, #26]
    130c:	7ff3      	ldrb	r3, [r6, #31]
    130e:	2b05      	cmp	r3, #5
    1310:	d13c      	bne.n	138c <_i2c_master_interrupt_handler+0xc0>
    1312:	1d63      	adds	r3, r4, #5
    1314:	7fdb      	ldrb	r3, [r3, #31]
    1316:	0020      	movs	r0, r4
    1318:	2b00      	cmp	r3, #0
    131a:	d000      	beq.n	131e <_i2c_master_interrupt_handler+0x52>
    131c:	e08a      	b.n	1434 <_i2c_master_interrupt_handler+0x168>
    131e:	f7ff ffb9 	bl	1294 <_i2c_master_write>
    1322:	e033      	b.n	138c <_i2c_master_interrupt_handler+0xc0>
    1324:	8b6a      	ldrh	r2, [r5, #26]
    1326:	0752      	lsls	r2, r2, #29
    1328:	d5ed      	bpl.n	1306 <_i2c_master_interrupt_handler+0x3a>
    132a:	2218      	movs	r2, #24
    132c:	77f2      	strb	r2, [r6, #31]
    132e:	83a3      	strh	r3, [r4, #28]
    1330:	7aa3      	ldrb	r3, [r4, #10]
    1332:	2b00      	cmp	r3, #0
    1334:	d0e7      	beq.n	1306 <_i2c_master_interrupt_handler+0x3a>
    1336:	0020      	movs	r0, r4
    1338:	f7ff ff6f 	bl	121a <_i2c_master_wait_for_sync>
    133c:	23c0      	movs	r3, #192	; 0xc0
    133e:	686a      	ldr	r2, [r5, #4]
    1340:	029b      	lsls	r3, r3, #10
    1342:	4313      	orrs	r3, r2
    1344:	606b      	str	r3, [r5, #4]
    1346:	e7de      	b.n	1306 <_i2c_master_interrupt_handler+0x3a>
    1348:	8b62      	ldrh	r2, [r4, #26]
    134a:	2a00      	cmp	r2, #0
    134c:	d05f      	beq.n	140e <_i2c_master_interrupt_handler+0x142>
    134e:	8ba2      	ldrh	r2, [r4, #28]
    1350:	2a00      	cmp	r2, #0
    1352:	d15c      	bne.n	140e <_i2c_master_interrupt_handler+0x142>
    1354:	7ff2      	ldrb	r2, [r6, #31]
    1356:	2a05      	cmp	r2, #5
    1358:	d159      	bne.n	140e <_i2c_master_interrupt_handler+0x142>
    135a:	1d62      	adds	r2, r4, #5
    135c:	7fd2      	ldrb	r2, [r2, #31]
    135e:	b2d2      	uxtb	r2, r2
    1360:	2a00      	cmp	r2, #0
    1362:	d154      	bne.n	140e <_i2c_master_interrupt_handler+0x142>
    1364:	2303      	movs	r3, #3
    1366:	752b      	strb	r3, [r5, #20]
    1368:	8362      	strh	r2, [r4, #26]
    136a:	77f2      	strb	r2, [r6, #31]
    136c:	7aa3      	ldrb	r3, [r4, #10]
    136e:	2b00      	cmp	r3, #0
    1370:	d04a      	beq.n	1408 <_i2c_master_interrupt_handler+0x13c>
    1372:	0020      	movs	r0, r4
    1374:	f7ff ff51 	bl	121a <_i2c_master_wait_for_sync>
    1378:	23c0      	movs	r3, #192	; 0xc0
    137a:	686a      	ldr	r2, [r5, #4]
    137c:	029b      	lsls	r3, r3, #10
    137e:	4313      	orrs	r3, r2
    1380:	606b      	str	r3, [r5, #4]
    1382:	07fb      	lsls	r3, r7, #31
    1384:	d502      	bpl.n	138c <_i2c_master_interrupt_handler+0xc0>
    1386:	68e3      	ldr	r3, [r4, #12]
    1388:	0020      	movs	r0, r4
    138a:	4798      	blx	r3
    138c:	8b63      	ldrh	r3, [r4, #26]
    138e:	2b00      	cmp	r3, #0
    1390:	d01b      	beq.n	13ca <_i2c_master_interrupt_handler+0xfe>
    1392:	8ba3      	ldrh	r3, [r4, #28]
    1394:	2b00      	cmp	r3, #0
    1396:	d118      	bne.n	13ca <_i2c_master_interrupt_handler+0xfe>
    1398:	7ff3      	ldrb	r3, [r6, #31]
    139a:	2b05      	cmp	r3, #5
    139c:	d115      	bne.n	13ca <_i2c_master_interrupt_handler+0xfe>
    139e:	1d63      	adds	r3, r4, #5
    13a0:	7fda      	ldrb	r2, [r3, #31]
    13a2:	2a01      	cmp	r2, #1
    13a4:	d111      	bne.n	13ca <_i2c_master_interrupt_handler+0xfe>
    13a6:	7e29      	ldrb	r1, [r5, #24]
    13a8:	3201      	adds	r2, #1
    13aa:	4211      	tst	r1, r2
    13ac:	d000      	beq.n	13b0 <_i2c_master_interrupt_handler+0xe4>
    13ae:	762a      	strb	r2, [r5, #24]
    13b0:	2203      	movs	r2, #3
    13b2:	752a      	strb	r2, [r5, #20]
    13b4:	2200      	movs	r2, #0
    13b6:	8362      	strh	r2, [r4, #26]
    13b8:	77f2      	strb	r2, [r6, #31]
    13ba:	07ba      	lsls	r2, r7, #30
    13bc:	d53d      	bpl.n	143a <_i2c_master_interrupt_handler+0x16e>
    13be:	7fda      	ldrb	r2, [r3, #31]
    13c0:	2a01      	cmp	r2, #1
    13c2:	d13a      	bne.n	143a <_i2c_master_interrupt_handler+0x16e>
    13c4:	6923      	ldr	r3, [r4, #16]
    13c6:	0020      	movs	r0, r4
    13c8:	4798      	blx	r3
    13ca:	7ff3      	ldrb	r3, [r6, #31]
    13cc:	2b05      	cmp	r3, #5
    13ce:	d01a      	beq.n	1406 <_i2c_master_interrupt_handler+0x13a>
    13d0:	7ff3      	ldrb	r3, [r6, #31]
    13d2:	2b00      	cmp	r3, #0
    13d4:	d017      	beq.n	1406 <_i2c_master_interrupt_handler+0x13a>
    13d6:	2303      	movs	r3, #3
    13d8:	752b      	strb	r3, [r5, #20]
    13da:	2300      	movs	r3, #0
    13dc:	8363      	strh	r3, [r4, #26]
    13de:	83a3      	strh	r3, [r4, #28]
    13e0:	7ff3      	ldrb	r3, [r6, #31]
    13e2:	2b41      	cmp	r3, #65	; 0x41
    13e4:	d00a      	beq.n	13fc <_i2c_master_interrupt_handler+0x130>
    13e6:	7aa3      	ldrb	r3, [r4, #10]
    13e8:	2b00      	cmp	r3, #0
    13ea:	d007      	beq.n	13fc <_i2c_master_interrupt_handler+0x130>
    13ec:	0020      	movs	r0, r4
    13ee:	f7ff ff14 	bl	121a <_i2c_master_wait_for_sync>
    13f2:	23e0      	movs	r3, #224	; 0xe0
    13f4:	686a      	ldr	r2, [r5, #4]
    13f6:	02db      	lsls	r3, r3, #11
    13f8:	4313      	orrs	r3, r2
    13fa:	606b      	str	r3, [r5, #4]
    13fc:	077b      	lsls	r3, r7, #29
    13fe:	d502      	bpl.n	1406 <_i2c_master_interrupt_handler+0x13a>
    1400:	6963      	ldr	r3, [r4, #20]
    1402:	0020      	movs	r0, r4
    1404:	4798      	blx	r3
    1406:	bdf8      	pop	{r3, r4, r5, r6, r7, pc}
    1408:	2301      	movs	r3, #1
    140a:	762b      	strb	r3, [r5, #24]
    140c:	e7b9      	b.n	1382 <_i2c_master_interrupt_handler+0xb6>
    140e:	8b62      	ldrh	r2, [r4, #26]
    1410:	2a00      	cmp	r2, #0
    1412:	d0bb      	beq.n	138c <_i2c_master_interrupt_handler+0xc0>
    1414:	8ba2      	ldrh	r2, [r4, #28]
    1416:	2a00      	cmp	r2, #0
    1418:	d0b8      	beq.n	138c <_i2c_master_interrupt_handler+0xc0>
    141a:	8b6a      	ldrh	r2, [r5, #26]
    141c:	0692      	lsls	r2, r2, #26
    141e:	d500      	bpl.n	1422 <_i2c_master_interrupt_handler+0x156>
    1420:	e777      	b.n	1312 <_i2c_master_interrupt_handler+0x46>
    1422:	2b00      	cmp	r3, #0
    1424:	d003      	beq.n	142e <_i2c_master_interrupt_handler+0x162>
    1426:	8ba3      	ldrh	r3, [r4, #28]
    1428:	2b01      	cmp	r3, #1
    142a:	d100      	bne.n	142e <_i2c_master_interrupt_handler+0x162>
    142c:	e771      	b.n	1312 <_i2c_master_interrupt_handler+0x46>
    142e:	2341      	movs	r3, #65	; 0x41
    1430:	77f3      	strb	r3, [r6, #31]
    1432:	e7ab      	b.n	138c <_i2c_master_interrupt_handler+0xc0>
    1434:	f7ff fef7 	bl	1226 <_i2c_master_read>
    1438:	e7a8      	b.n	138c <_i2c_master_interrupt_handler+0xc0>
    143a:	07fa      	lsls	r2, r7, #31
    143c:	d5c5      	bpl.n	13ca <_i2c_master_interrupt_handler+0xfe>
    143e:	7fdb      	ldrb	r3, [r3, #31]
    1440:	2b00      	cmp	r3, #0
    1442:	d1c2      	bne.n	13ca <_i2c_master_interrupt_handler+0xfe>
    1444:	68e3      	ldr	r3, [r4, #12]
    1446:	e7be      	b.n	13c6 <_i2c_master_interrupt_handler+0xfa>
    1448:	20000204 	.word	0x20000204

0000144c <sercom_set_gclk_generator>:
    144c:	b537      	push	{r0, r1, r2, r4, r5, lr}
    144e:	4c0d      	ldr	r4, [pc, #52]	; (1484 <sercom_set_gclk_generator+0x38>)
    1450:	0005      	movs	r5, r0
    1452:	7823      	ldrb	r3, [r4, #0]
    1454:	2b00      	cmp	r3, #0
    1456:	d001      	beq.n	145c <sercom_set_gclk_generator+0x10>
    1458:	2900      	cmp	r1, #0
    145a:	d00c      	beq.n	1476 <sercom_set_gclk_generator+0x2a>
    145c:	a901      	add	r1, sp, #4
    145e:	200d      	movs	r0, #13
    1460:	700d      	strb	r5, [r1, #0]
    1462:	f000 fab7 	bl	19d4 <system_gclk_chan_set_config>
    1466:	200d      	movs	r0, #13
    1468:	f000 fa78 	bl	195c <system_gclk_chan_enable>
    146c:	2301      	movs	r3, #1
    146e:	2000      	movs	r0, #0
    1470:	7065      	strb	r5, [r4, #1]
    1472:	7023      	strb	r3, [r4, #0]
    1474:	bd3e      	pop	{r1, r2, r3, r4, r5, pc}
    1476:	7863      	ldrb	r3, [r4, #1]
    1478:	0008      	movs	r0, r1
    147a:	42ab      	cmp	r3, r5
    147c:	d0fa      	beq.n	1474 <sercom_set_gclk_generator+0x28>
    147e:	201d      	movs	r0, #29
    1480:	e7f8      	b.n	1474 <sercom_set_gclk_generator+0x28>
    1482:	46c0      	nop			; (mov r8, r8)
    1484:	2000006d 	.word	0x2000006d

00001488 <_sercom_get_default_pad>:
    1488:	4a1d      	ldr	r2, [pc, #116]	; (1500 <_sercom_get_default_pad+0x78>)
    148a:	0003      	movs	r3, r0
    148c:	b500      	push	{lr}
    148e:	0008      	movs	r0, r1
    1490:	4293      	cmp	r3, r2
    1492:	d013      	beq.n	14bc <_sercom_get_default_pad+0x34>
    1494:	4a1b      	ldr	r2, [pc, #108]	; (1504 <_sercom_get_default_pad+0x7c>)
    1496:	4293      	cmp	r3, r2
    1498:	d01d      	beq.n	14d6 <_sercom_get_default_pad+0x4e>
    149a:	4a1b      	ldr	r2, [pc, #108]	; (1508 <_sercom_get_default_pad+0x80>)
    149c:	4293      	cmp	r3, r2
    149e:	d127      	bne.n	14f0 <_sercom_get_default_pad+0x68>
    14a0:	2300      	movs	r3, #0
    14a2:	2903      	cmp	r1, #3
    14a4:	d804      	bhi.n	14b0 <_sercom_get_default_pad+0x28>
    14a6:	f001 f937 	bl	2718 <__gnu_thumb1_case_uqi>
    14aa:	0225      	.short	0x0225
    14ac:	0705      	.short	0x0705
    14ae:	4b17      	ldr	r3, [pc, #92]	; (150c <_sercom_get_default_pad+0x84>)
    14b0:	0018      	movs	r0, r3
    14b2:	bd00      	pop	{pc}
    14b4:	4b16      	ldr	r3, [pc, #88]	; (1510 <_sercom_get_default_pad+0x88>)
    14b6:	e7fb      	b.n	14b0 <_sercom_get_default_pad+0x28>
    14b8:	4b16      	ldr	r3, [pc, #88]	; (1514 <_sercom_get_default_pad+0x8c>)
    14ba:	e7f9      	b.n	14b0 <_sercom_get_default_pad+0x28>
    14bc:	2300      	movs	r3, #0
    14be:	2903      	cmp	r1, #3
    14c0:	d8f6      	bhi.n	14b0 <_sercom_get_default_pad+0x28>
    14c2:	f001 f929 	bl	2718 <__gnu_thumb1_case_uqi>
    14c6:	0219      	.short	0x0219
    14c8:	0604      	.short	0x0604
    14ca:	4b13      	ldr	r3, [pc, #76]	; (1518 <_sercom_get_default_pad+0x90>)
    14cc:	e7f0      	b.n	14b0 <_sercom_get_default_pad+0x28>
    14ce:	4b13      	ldr	r3, [pc, #76]	; (151c <_sercom_get_default_pad+0x94>)
    14d0:	e7ee      	b.n	14b0 <_sercom_get_default_pad+0x28>
    14d2:	4b13      	ldr	r3, [pc, #76]	; (1520 <_sercom_get_default_pad+0x98>)
    14d4:	e7ec      	b.n	14b0 <_sercom_get_default_pad+0x28>
    14d6:	2300      	movs	r3, #0
    14d8:	2903      	cmp	r1, #3
    14da:	d8e9      	bhi.n	14b0 <_sercom_get_default_pad+0x28>
    14dc:	f001 f91c 	bl	2718 <__gnu_thumb1_case_uqi>
    14e0:	0604020e 	.word	0x0604020e
    14e4:	4b0f      	ldr	r3, [pc, #60]	; (1524 <_sercom_get_default_pad+0x9c>)
    14e6:	e7e3      	b.n	14b0 <_sercom_get_default_pad+0x28>
    14e8:	4b0f      	ldr	r3, [pc, #60]	; (1528 <_sercom_get_default_pad+0xa0>)
    14ea:	e7e1      	b.n	14b0 <_sercom_get_default_pad+0x28>
    14ec:	4b0f      	ldr	r3, [pc, #60]	; (152c <_sercom_get_default_pad+0xa4>)
    14ee:	e7df      	b.n	14b0 <_sercom_get_default_pad+0x28>
    14f0:	2300      	movs	r3, #0
    14f2:	e7dd      	b.n	14b0 <_sercom_get_default_pad+0x28>
    14f4:	4b0e      	ldr	r3, [pc, #56]	; (1530 <_sercom_get_default_pad+0xa8>)
    14f6:	e7db      	b.n	14b0 <_sercom_get_default_pad+0x28>
    14f8:	4b0e      	ldr	r3, [pc, #56]	; (1534 <_sercom_get_default_pad+0xac>)
    14fa:	e7d9      	b.n	14b0 <_sercom_get_default_pad+0x28>
    14fc:	4b0e      	ldr	r3, [pc, #56]	; (1538 <_sercom_get_default_pad+0xb0>)
    14fe:	e7d7      	b.n	14b0 <_sercom_get_default_pad+0x28>
    1500:	42000c00 	.word	0x42000c00
    1504:	42001000 	.word	0x42001000
    1508:	42000800 	.word	0x42000800
    150c:	00050003 	.word	0x00050003
    1510:	00060003 	.word	0x00060003
    1514:	00070003 	.word	0x00070003
    1518:	00170002 	.word	0x00170002
    151c:	001e0003 	.word	0x001e0003
    1520:	001f0003 	.word	0x001f0003
    1524:	00170003 	.word	0x00170003
    1528:	00100003 	.word	0x00100003
    152c:	00190003 	.word	0x00190003
    1530:	00040003 	.word	0x00040003
    1534:	00160002 	.word	0x00160002
    1538:	00160003 	.word	0x00160003

0000153c <_sercom_get_sercom_inst_index>:
    153c:	b57f      	push	{r0, r1, r2, r3, r4, r5, r6, lr}
    153e:	4b0c      	ldr	r3, [pc, #48]	; (1570 <_sercom_get_sercom_inst_index+0x34>)
    1540:	0001      	movs	r1, r0
    1542:	0018      	movs	r0, r3
    1544:	aa01      	add	r2, sp, #4
    1546:	c870      	ldmia	r0!, {r4, r5, r6}
    1548:	c270      	stmia	r2!, {r4, r5, r6}
    154a:	9a01      	ldr	r2, [sp, #4]
    154c:	428a      	cmp	r2, r1
    154e:	d00a      	beq.n	1566 <_sercom_get_sercom_inst_index+0x2a>
    1550:	685a      	ldr	r2, [r3, #4]
    1552:	428a      	cmp	r2, r1
    1554:	d009      	beq.n	156a <_sercom_get_sercom_inst_index+0x2e>
    1556:	689b      	ldr	r3, [r3, #8]
    1558:	2000      	movs	r0, #0
    155a:	428b      	cmp	r3, r1
    155c:	d101      	bne.n	1562 <_sercom_get_sercom_inst_index+0x26>
    155e:	3002      	adds	r0, #2
    1560:	b2c0      	uxtb	r0, r0
    1562:	b004      	add	sp, #16
    1564:	bd70      	pop	{r4, r5, r6, pc}
    1566:	2000      	movs	r0, #0
    1568:	e7fa      	b.n	1560 <_sercom_get_sercom_inst_index+0x24>
    156a:	2001      	movs	r0, #1
    156c:	e7f8      	b.n	1560 <_sercom_get_sercom_inst_index+0x24>
    156e:	46c0      	nop			; (mov r8, r8)
    1570:	000028f4 	.word	0x000028f4

00001574 <_sercom_default_handler>:
    1574:	4770      	bx	lr
	...

00001578 <_sercom_set_handler>:
    1578:	b570      	push	{r4, r5, r6, lr}
    157a:	4e09      	ldr	r6, [pc, #36]	; (15a0 <_sercom_set_handler+0x28>)
    157c:	4b09      	ldr	r3, [pc, #36]	; (15a4 <_sercom_set_handler+0x2c>)
    157e:	7832      	ldrb	r2, [r6, #0]
    1580:	2a00      	cmp	r2, #0
    1582:	d109      	bne.n	1598 <_sercom_set_handler+0x20>
    1584:	4c08      	ldr	r4, [pc, #32]	; (15a8 <_sercom_set_handler+0x30>)
    1586:	4d09      	ldr	r5, [pc, #36]	; (15ac <_sercom_set_handler+0x34>)
    1588:	6022      	str	r2, [r4, #0]
    158a:	6062      	str	r2, [r4, #4]
    158c:	60a2      	str	r2, [r4, #8]
    158e:	3201      	adds	r2, #1
    1590:	601d      	str	r5, [r3, #0]
    1592:	605d      	str	r5, [r3, #4]
    1594:	609d      	str	r5, [r3, #8]
    1596:	7032      	strb	r2, [r6, #0]
    1598:	0080      	lsls	r0, r0, #2
    159a:	5019      	str	r1, [r3, r0]
    159c:	bd70      	pop	{r4, r5, r6, pc}
    159e:	46c0      	nop			; (mov r8, r8)
    15a0:	2000006f 	.word	0x2000006f
    15a4:	20000070 	.word	0x20000070
    15a8:	20000204 	.word	0x20000204
    15ac:	00001575 	.word	0x00001575

000015b0 <_sercom_get_interrupt_vector>:
    15b0:	2309      	movs	r3, #9
    15b2:	b513      	push	{r0, r1, r4, lr}
    15b4:	ac01      	add	r4, sp, #4
    15b6:	7023      	strb	r3, [r4, #0]
    15b8:	3301      	adds	r3, #1
    15ba:	7063      	strb	r3, [r4, #1]
    15bc:	3301      	adds	r3, #1
    15be:	70a3      	strb	r3, [r4, #2]
    15c0:	f7ff ffbc 	bl	153c <_sercom_get_sercom_inst_index>
    15c4:	5620      	ldrsb	r0, [r4, r0]
    15c6:	bd16      	pop	{r1, r2, r4, pc}

000015c8 <SERCOM0_Handler>:
    15c8:	b510      	push	{r4, lr}
    15ca:	4b02      	ldr	r3, [pc, #8]	; (15d4 <SERCOM0_Handler+0xc>)
    15cc:	2000      	movs	r0, #0
    15ce:	681b      	ldr	r3, [r3, #0]
    15d0:	4798      	blx	r3
    15d2:	bd10      	pop	{r4, pc}
    15d4:	20000070 	.word	0x20000070

000015d8 <SERCOM1_Handler>:
    15d8:	b510      	push	{r4, lr}
    15da:	4b02      	ldr	r3, [pc, #8]	; (15e4 <SERCOM1_Handler+0xc>)
    15dc:	2001      	movs	r0, #1
    15de:	685b      	ldr	r3, [r3, #4]
    15e0:	4798      	blx	r3
    15e2:	bd10      	pop	{r4, pc}
    15e4:	20000070 	.word	0x20000070

000015e8 <SERCOM2_Handler>:
    15e8:	b510      	push	{r4, lr}
    15ea:	4b02      	ldr	r3, [pc, #8]	; (15f4 <SERCOM2_Handler+0xc>)
    15ec:	2002      	movs	r0, #2
    15ee:	689b      	ldr	r3, [r3, #8]
    15f0:	4798      	blx	r3
    15f2:	bd10      	pop	{r4, pc}
    15f4:	20000070 	.word	0x20000070

000015f8 <_system_dfll_wait_for_sync>:
    15f8:	2310      	movs	r3, #16
    15fa:	4902      	ldr	r1, [pc, #8]	; (1604 <_system_dfll_wait_for_sync+0xc>)
    15fc:	68ca      	ldr	r2, [r1, #12]
    15fe:	421a      	tst	r2, r3
    1600:	d0fc      	beq.n	15fc <_system_dfll_wait_for_sync+0x4>
    1602:	4770      	bx	lr
    1604:	40000800 	.word	0x40000800

00001608 <system_clock_source_get_hz>:
    1608:	b570      	push	{r4, r5, r6, lr}
    160a:	2808      	cmp	r0, #8
    160c:	d806      	bhi.n	161c <system_clock_source_get_hz+0x14>
    160e:	f001 f883 	bl	2718 <__gnu_thumb1_case_uqi>
    1612:	0508      	.short	0x0508
    1614:	12303005 	.word	0x12303005
    1618:	150b      	.short	0x150b
    161a:	28          	.byte	0x28
    161b:	00          	.byte	0x00
    161c:	2400      	movs	r4, #0
    161e:	0020      	movs	r0, r4
    1620:	bd70      	pop	{r4, r5, r6, pc}
    1622:	4b16      	ldr	r3, [pc, #88]	; (167c <system_clock_source_get_hz+0x74>)
    1624:	691c      	ldr	r4, [r3, #16]
    1626:	e7fa      	b.n	161e <system_clock_source_get_hz+0x16>
    1628:	4b15      	ldr	r3, [pc, #84]	; (1680 <system_clock_source_get_hz+0x78>)
    162a:	4c16      	ldr	r4, [pc, #88]	; (1684 <system_clock_source_get_hz+0x7c>)
    162c:	6a1b      	ldr	r3, [r3, #32]
    162e:	059b      	lsls	r3, r3, #22
    1630:	0f9b      	lsrs	r3, r3, #30
    1632:	40dc      	lsrs	r4, r3
    1634:	e7f3      	b.n	161e <system_clock_source_get_hz+0x16>
    1636:	4b11      	ldr	r3, [pc, #68]	; (167c <system_clock_source_get_hz+0x74>)
    1638:	695c      	ldr	r4, [r3, #20]
    163a:	e7f0      	b.n	161e <system_clock_source_get_hz+0x16>
    163c:	4d0f      	ldr	r5, [pc, #60]	; (167c <system_clock_source_get_hz+0x74>)
    163e:	2400      	movs	r4, #0
    1640:	682b      	ldr	r3, [r5, #0]
    1642:	079b      	lsls	r3, r3, #30
    1644:	d5eb      	bpl.n	161e <system_clock_source_get_hz+0x16>
    1646:	f7ff ffd7 	bl	15f8 <_system_dfll_wait_for_sync>
    164a:	2224      	movs	r2, #36	; 0x24
    164c:	682b      	ldr	r3, [r5, #0]
    164e:	4013      	ands	r3, r2
    1650:	2b04      	cmp	r3, #4
    1652:	d111      	bne.n	1678 <system_clock_source_get_hz+0x70>
    1654:	0020      	movs	r0, r4
    1656:	f000 f9c9 	bl	19ec <system_gclk_chan_get_hz>
    165a:	68ac      	ldr	r4, [r5, #8]
    165c:	b2a4      	uxth	r4, r4
    165e:	4344      	muls	r4, r0
    1660:	e7dd      	b.n	161e <system_clock_source_get_hz+0x16>
    1662:	4b09      	ldr	r3, [pc, #36]	; (1688 <system_clock_source_get_hz+0x80>)
    1664:	2400      	movs	r4, #0
    1666:	781b      	ldrb	r3, [r3, #0]
    1668:	075b      	lsls	r3, r3, #29
    166a:	d5d8      	bpl.n	161e <system_clock_source_get_hz+0x16>
    166c:	4b03      	ldr	r3, [pc, #12]	; (167c <system_clock_source_get_hz+0x74>)
    166e:	68dc      	ldr	r4, [r3, #12]
    1670:	e7d5      	b.n	161e <system_clock_source_get_hz+0x16>
    1672:	2480      	movs	r4, #128	; 0x80
    1674:	0224      	lsls	r4, r4, #8
    1676:	e7d2      	b.n	161e <system_clock_source_get_hz+0x16>
    1678:	4c04      	ldr	r4, [pc, #16]	; (168c <system_clock_source_get_hz+0x84>)
    167a:	e7d0      	b.n	161e <system_clock_source_get_hz+0x16>
    167c:	2000007c 	.word	0x2000007c
    1680:	40000800 	.word	0x40000800
    1684:	007a1200 	.word	0x007a1200
    1688:	40000850 	.word	0x40000850
    168c:	02dc6c00 	.word	0x02dc6c00

00001690 <system_clock_source_osc8m_set_config>:
    1690:	b570      	push	{r4, r5, r6, lr}
    1692:	7884      	ldrb	r4, [r0, #2]
    1694:	7802      	ldrb	r2, [r0, #0]
    1696:	7845      	ldrb	r5, [r0, #1]
    1698:	2001      	movs	r0, #1
    169a:	2640      	movs	r6, #64	; 0x40
    169c:	4005      	ands	r5, r0
    169e:	4020      	ands	r0, r4
    16a0:	2480      	movs	r4, #128	; 0x80
    16a2:	4908      	ldr	r1, [pc, #32]	; (16c4 <system_clock_source_osc8m_set_config+0x34>)
    16a4:	01ad      	lsls	r5, r5, #6
    16a6:	6a0b      	ldr	r3, [r1, #32]
    16a8:	01c0      	lsls	r0, r0, #7
    16aa:	43b3      	bics	r3, r6
    16ac:	432b      	orrs	r3, r5
    16ae:	43a3      	bics	r3, r4
    16b0:	4303      	orrs	r3, r0
    16b2:	2003      	movs	r0, #3
    16b4:	4002      	ands	r2, r0
    16b6:	4804      	ldr	r0, [pc, #16]	; (16c8 <system_clock_source_osc8m_set_config+0x38>)
    16b8:	0212      	lsls	r2, r2, #8
    16ba:	4003      	ands	r3, r0
    16bc:	4313      	orrs	r3, r2
    16be:	620b      	str	r3, [r1, #32]
    16c0:	bd70      	pop	{r4, r5, r6, pc}
    16c2:	46c0      	nop			; (mov r8, r8)
    16c4:	40000800 	.word	0x40000800
    16c8:	fffffcff 	.word	0xfffffcff

000016cc <system_clock_source_enable>:
    16cc:	b570      	push	{r4, r5, r6, lr}
    16ce:	2808      	cmp	r0, #8
    16d0:	d806      	bhi.n	16e0 <system_clock_source_enable+0x14>
    16d2:	f001 f821 	bl	2718 <__gnu_thumb1_case_uqi>
    16d6:	0514      	.short	0x0514
    16d8:	1a0e0c05 	.word	0x1a0e0c05
    16dc:	2007      	.short	0x2007
    16de:	35          	.byte	0x35
    16df:	00          	.byte	0x00
    16e0:	2017      	movs	r0, #23
    16e2:	bd70      	pop	{r4, r5, r6, pc}
    16e4:	2302      	movs	r3, #2
    16e6:	4a19      	ldr	r2, [pc, #100]	; (174c <system_clock_source_enable+0x80>)
    16e8:	6a11      	ldr	r1, [r2, #32]
    16ea:	430b      	orrs	r3, r1
    16ec:	6213      	str	r3, [r2, #32]
    16ee:	2000      	movs	r0, #0
    16f0:	e7f7      	b.n	16e2 <system_clock_source_enable+0x16>
    16f2:	2302      	movs	r3, #2
    16f4:	4a15      	ldr	r2, [pc, #84]	; (174c <system_clock_source_enable+0x80>)
    16f6:	6991      	ldr	r1, [r2, #24]
    16f8:	430b      	orrs	r3, r1
    16fa:	6193      	str	r3, [r2, #24]
    16fc:	e7f7      	b.n	16ee <system_clock_source_enable+0x22>
    16fe:	2302      	movs	r3, #2
    1700:	4a12      	ldr	r2, [pc, #72]	; (174c <system_clock_source_enable+0x80>)
    1702:	8a11      	ldrh	r1, [r2, #16]
    1704:	430b      	orrs	r3, r1
    1706:	8213      	strh	r3, [r2, #16]
    1708:	e7f1      	b.n	16ee <system_clock_source_enable+0x22>
    170a:	2302      	movs	r3, #2
    170c:	4a0f      	ldr	r2, [pc, #60]	; (174c <system_clock_source_enable+0x80>)
    170e:	8a91      	ldrh	r1, [r2, #20]
    1710:	430b      	orrs	r3, r1
    1712:	8293      	strh	r3, [r2, #20]
    1714:	e7eb      	b.n	16ee <system_clock_source_enable+0x22>
    1716:	2202      	movs	r2, #2
    1718:	2400      	movs	r4, #0
    171a:	4e0d      	ldr	r6, [pc, #52]	; (1750 <system_clock_source_enable+0x84>)
    171c:	4d0b      	ldr	r5, [pc, #44]	; (174c <system_clock_source_enable+0x80>)
    171e:	6833      	ldr	r3, [r6, #0]
    1720:	4313      	orrs	r3, r2
    1722:	6033      	str	r3, [r6, #0]
    1724:	84aa      	strh	r2, [r5, #36]	; 0x24
    1726:	f7ff ff67 	bl	15f8 <_system_dfll_wait_for_sync>
    172a:	68b3      	ldr	r3, [r6, #8]
    172c:	62eb      	str	r3, [r5, #44]	; 0x2c
    172e:	6873      	ldr	r3, [r6, #4]
    1730:	62ab      	str	r3, [r5, #40]	; 0x28
    1732:	84ac      	strh	r4, [r5, #36]	; 0x24
    1734:	f7ff ff60 	bl	15f8 <_system_dfll_wait_for_sync>
    1738:	6833      	ldr	r3, [r6, #0]
    173a:	b29b      	uxth	r3, r3
    173c:	84ab      	strh	r3, [r5, #36]	; 0x24
    173e:	e7d6      	b.n	16ee <system_clock_source_enable+0x22>
    1740:	2302      	movs	r3, #2
    1742:	4a04      	ldr	r2, [pc, #16]	; (1754 <system_clock_source_enable+0x88>)
    1744:	7811      	ldrb	r1, [r2, #0]
    1746:	430b      	orrs	r3, r1
    1748:	7013      	strb	r3, [r2, #0]
    174a:	e7d0      	b.n	16ee <system_clock_source_enable+0x22>
    174c:	40000800 	.word	0x40000800
    1750:	2000007c 	.word	0x2000007c
    1754:	40000844 	.word	0x40000844

00001758 <system_clock_init>:
    1758:	22c2      	movs	r2, #194	; 0xc2
    175a:	211e      	movs	r1, #30
    175c:	b5f0      	push	{r4, r5, r6, r7, lr}
    175e:	4b20      	ldr	r3, [pc, #128]	; (17e0 <system_clock_init+0x88>)
    1760:	00d2      	lsls	r2, r2, #3
    1762:	609a      	str	r2, [r3, #8]
    1764:	4a1f      	ldr	r2, [pc, #124]	; (17e4 <system_clock_init+0x8c>)
    1766:	2500      	movs	r5, #0
    1768:	6853      	ldr	r3, [r2, #4]
    176a:	b085      	sub	sp, #20
    176c:	438b      	bics	r3, r1
    176e:	6053      	str	r3, [r2, #4]
    1770:	2301      	movs	r3, #1
    1772:	ac01      	add	r4, sp, #4
    1774:	7023      	strb	r3, [r4, #0]
    1776:	b2e8      	uxtb	r0, r5
    1778:	0021      	movs	r1, r4
    177a:	3501      	adds	r5, #1
    177c:	f000 f92a 	bl	19d4 <system_gclk_chan_set_config>
    1780:	2d18      	cmp	r5, #24
    1782:	d1f8      	bne.n	1776 <system_clock_init+0x1e>
    1784:	2500      	movs	r5, #0
    1786:	466b      	mov	r3, sp
    1788:	2601      	movs	r6, #1
    178a:	2706      	movs	r7, #6
    178c:	4668      	mov	r0, sp
    178e:	701d      	strb	r5, [r3, #0]
    1790:	709d      	strb	r5, [r3, #2]
    1792:	705e      	strb	r6, [r3, #1]
    1794:	f7ff ff7c 	bl	1690 <system_clock_source_osc8m_set_config>
    1798:	2006      	movs	r0, #6
    179a:	f7ff ff97 	bl	16cc <system_clock_source_enable>
    179e:	f000 f82b 	bl	17f8 <system_gclk_init>
    17a2:	0021      	movs	r1, r4
    17a4:	2005      	movs	r0, #5
    17a6:	6066      	str	r6, [r4, #4]
    17a8:	7065      	strb	r5, [r4, #1]
    17aa:	7027      	strb	r7, [r4, #0]
    17ac:	7225      	strb	r5, [r4, #8]
    17ae:	7265      	strb	r5, [r4, #9]
    17b0:	f000 f832 	bl	1818 <system_gclk_gen_set_config>
    17b4:	2005      	movs	r0, #5
    17b6:	f000 f87d 	bl	18b4 <system_gclk_gen_enable>
    17ba:	4b0b      	ldr	r3, [pc, #44]	; (17e8 <system_clock_init+0x90>)
    17bc:	0021      	movs	r1, r4
    17be:	721d      	strb	r5, [r3, #8]
    17c0:	0028      	movs	r0, r5
    17c2:	725d      	strb	r5, [r3, #9]
    17c4:	729d      	strb	r5, [r3, #10]
    17c6:	72dd      	strb	r5, [r3, #11]
    17c8:	6066      	str	r6, [r4, #4]
    17ca:	7065      	strb	r5, [r4, #1]
    17cc:	7027      	strb	r7, [r4, #0]
    17ce:	7265      	strb	r5, [r4, #9]
    17d0:	7226      	strb	r6, [r4, #8]
    17d2:	f000 f821 	bl	1818 <system_gclk_gen_set_config>
    17d6:	0028      	movs	r0, r5
    17d8:	f000 f86c 	bl	18b4 <system_gclk_gen_enable>
    17dc:	b005      	add	sp, #20
    17de:	bdf0      	pop	{r4, r5, r6, r7, pc}
    17e0:	40000800 	.word	0x40000800
    17e4:	41004000 	.word	0x41004000
    17e8:	40000400 	.word	0x40000400

000017ec <system_gclk_is_syncing>:
    17ec:	4b01      	ldr	r3, [pc, #4]	; (17f4 <system_gclk_is_syncing+0x8>)
    17ee:	7858      	ldrb	r0, [r3, #1]
    17f0:	09c0      	lsrs	r0, r0, #7
    17f2:	4770      	bx	lr
    17f4:	40000c00 	.word	0x40000c00

000017f8 <system_gclk_init>:
    17f8:	2308      	movs	r3, #8
    17fa:	4a05      	ldr	r2, [pc, #20]	; (1810 <system_gclk_init+0x18>)
    17fc:	6991      	ldr	r1, [r2, #24]
    17fe:	430b      	orrs	r3, r1
    1800:	6193      	str	r3, [r2, #24]
    1802:	2301      	movs	r3, #1
    1804:	4a03      	ldr	r2, [pc, #12]	; (1814 <system_gclk_init+0x1c>)
    1806:	7013      	strb	r3, [r2, #0]
    1808:	7811      	ldrb	r1, [r2, #0]
    180a:	4219      	tst	r1, r3
    180c:	d1fc      	bne.n	1808 <system_gclk_init+0x10>
    180e:	4770      	bx	lr
    1810:	40000400 	.word	0x40000400
    1814:	40000c00 	.word	0x40000c00

00001818 <system_gclk_gen_set_config>:
    1818:	b570      	push	{r4, r5, r6, lr}
    181a:	780c      	ldrb	r4, [r1, #0]
    181c:	784b      	ldrb	r3, [r1, #1]
    181e:	0224      	lsls	r4, r4, #8
    1820:	0006      	movs	r6, r0
    1822:	0005      	movs	r5, r0
    1824:	4304      	orrs	r4, r0
    1826:	2b00      	cmp	r3, #0
    1828:	d002      	beq.n	1830 <system_gclk_gen_set_config+0x18>
    182a:	2380      	movs	r3, #128	; 0x80
    182c:	02db      	lsls	r3, r3, #11
    182e:	431c      	orrs	r4, r3
    1830:	7a4b      	ldrb	r3, [r1, #9]
    1832:	2b00      	cmp	r3, #0
    1834:	d002      	beq.n	183c <system_gclk_gen_set_config+0x24>
    1836:	2380      	movs	r3, #128	; 0x80
    1838:	031b      	lsls	r3, r3, #12
    183a:	431c      	orrs	r4, r3
    183c:	684b      	ldr	r3, [r1, #4]
    183e:	2b01      	cmp	r3, #1
    1840:	d912      	bls.n	1868 <system_gclk_gen_set_config+0x50>
    1842:	1e5d      	subs	r5, r3, #1
    1844:	401d      	ands	r5, r3
    1846:	2202      	movs	r2, #2
    1848:	2d00      	cmp	r5, #0
    184a:	d006      	beq.n	185a <system_gclk_gen_set_config+0x42>
    184c:	021d      	lsls	r5, r3, #8
    184e:	2380      	movs	r3, #128	; 0x80
    1850:	4335      	orrs	r5, r6
    1852:	029b      	lsls	r3, r3, #10
    1854:	e007      	b.n	1866 <system_gclk_gen_set_config+0x4e>
    1856:	3501      	adds	r5, #1
    1858:	0052      	lsls	r2, r2, #1
    185a:	429a      	cmp	r2, r3
    185c:	d3fb      	bcc.n	1856 <system_gclk_gen_set_config+0x3e>
    185e:	2380      	movs	r3, #128	; 0x80
    1860:	022d      	lsls	r5, r5, #8
    1862:	4335      	orrs	r5, r6
    1864:	035b      	lsls	r3, r3, #13
    1866:	431c      	orrs	r4, r3
    1868:	7a0b      	ldrb	r3, [r1, #8]
    186a:	2b00      	cmp	r3, #0
    186c:	d002      	beq.n	1874 <system_gclk_gen_set_config+0x5c>
    186e:	2380      	movs	r3, #128	; 0x80
    1870:	039b      	lsls	r3, r3, #14
    1872:	431c      	orrs	r4, r3
    1874:	f7ff ffba 	bl	17ec <system_gclk_is_syncing>
    1878:	2800      	cmp	r0, #0
    187a:	d1fb      	bne.n	1874 <system_gclk_gen_set_config+0x5c>
    187c:	f7ff fb18 	bl	eb0 <cpu_irq_enter_critical>
    1880:	4b0a      	ldr	r3, [pc, #40]	; (18ac <system_gclk_gen_set_config+0x94>)
    1882:	701e      	strb	r6, [r3, #0]
    1884:	f7ff ffb2 	bl	17ec <system_gclk_is_syncing>
    1888:	2800      	cmp	r0, #0
    188a:	d1fb      	bne.n	1884 <system_gclk_gen_set_config+0x6c>
    188c:	4b08      	ldr	r3, [pc, #32]	; (18b0 <system_gclk_gen_set_config+0x98>)
    188e:	609d      	str	r5, [r3, #8]
    1890:	001d      	movs	r5, r3
    1892:	f7ff ffab 	bl	17ec <system_gclk_is_syncing>
    1896:	2800      	cmp	r0, #0
    1898:	d1fb      	bne.n	1892 <system_gclk_gen_set_config+0x7a>
    189a:	2280      	movs	r2, #128	; 0x80
    189c:	686b      	ldr	r3, [r5, #4]
    189e:	0252      	lsls	r2, r2, #9
    18a0:	4013      	ands	r3, r2
    18a2:	431c      	orrs	r4, r3
    18a4:	606c      	str	r4, [r5, #4]
    18a6:	f7ff fb1d 	bl	ee4 <cpu_irq_leave_critical>
    18aa:	bd70      	pop	{r4, r5, r6, pc}
    18ac:	40000c08 	.word	0x40000c08
    18b0:	40000c00 	.word	0x40000c00

000018b4 <system_gclk_gen_enable>:
    18b4:	b510      	push	{r4, lr}
    18b6:	0004      	movs	r4, r0
    18b8:	f7ff ff98 	bl	17ec <system_gclk_is_syncing>
    18bc:	2800      	cmp	r0, #0
    18be:	d1fb      	bne.n	18b8 <system_gclk_gen_enable+0x4>
    18c0:	f7ff faf6 	bl	eb0 <cpu_irq_enter_critical>
    18c4:	4b07      	ldr	r3, [pc, #28]	; (18e4 <system_gclk_gen_enable+0x30>)
    18c6:	701c      	strb	r4, [r3, #0]
    18c8:	f7ff ff90 	bl	17ec <system_gclk_is_syncing>
    18cc:	2800      	cmp	r0, #0
    18ce:	d1fb      	bne.n	18c8 <system_gclk_gen_enable+0x14>
    18d0:	2380      	movs	r3, #128	; 0x80
    18d2:	4a05      	ldr	r2, [pc, #20]	; (18e8 <system_gclk_gen_enable+0x34>)
    18d4:	025b      	lsls	r3, r3, #9
    18d6:	6851      	ldr	r1, [r2, #4]
    18d8:	430b      	orrs	r3, r1
    18da:	6053      	str	r3, [r2, #4]
    18dc:	f7ff fb02 	bl	ee4 <cpu_irq_leave_critical>
    18e0:	bd10      	pop	{r4, pc}
    18e2:	46c0      	nop			; (mov r8, r8)
    18e4:	40000c04 	.word	0x40000c04
    18e8:	40000c00 	.word	0x40000c00

000018ec <system_gclk_gen_get_hz>:
    18ec:	b5f8      	push	{r3, r4, r5, r6, r7, lr}
    18ee:	0007      	movs	r7, r0
    18f0:	f7ff ff7c 	bl	17ec <system_gclk_is_syncing>
    18f4:	2800      	cmp	r0, #0
    18f6:	d1fb      	bne.n	18f0 <system_gclk_gen_get_hz+0x4>
    18f8:	4e15      	ldr	r6, [pc, #84]	; (1950 <system_gclk_gen_get_hz+0x64>)
    18fa:	f7ff fad9 	bl	eb0 <cpu_irq_enter_critical>
    18fe:	7037      	strb	r7, [r6, #0]
    1900:	f7ff ff74 	bl	17ec <system_gclk_is_syncing>
    1904:	2800      	cmp	r0, #0
    1906:	d1fb      	bne.n	1900 <system_gclk_gen_get_hz+0x14>
    1908:	4c12      	ldr	r4, [pc, #72]	; (1954 <system_gclk_gen_get_hz+0x68>)
    190a:	6860      	ldr	r0, [r4, #4]
    190c:	04c0      	lsls	r0, r0, #19
    190e:	0ec0      	lsrs	r0, r0, #27
    1910:	f7ff fe7a 	bl	1608 <system_clock_source_get_hz>
    1914:	0005      	movs	r5, r0
    1916:	7037      	strb	r7, [r6, #0]
    1918:	6866      	ldr	r6, [r4, #4]
    191a:	4b0f      	ldr	r3, [pc, #60]	; (1958 <system_gclk_gen_get_hz+0x6c>)
    191c:	02f6      	lsls	r6, r6, #11
    191e:	0ff6      	lsrs	r6, r6, #31
    1920:	701f      	strb	r7, [r3, #0]
    1922:	f7ff ff63 	bl	17ec <system_gclk_is_syncing>
    1926:	2800      	cmp	r0, #0
    1928:	d1fb      	bne.n	1922 <system_gclk_gen_get_hz+0x36>
    192a:	68a4      	ldr	r4, [r4, #8]
    192c:	0224      	lsls	r4, r4, #8
    192e:	0c24      	lsrs	r4, r4, #16
    1930:	f7ff fad8 	bl	ee4 <cpu_irq_leave_critical>
    1934:	2e00      	cmp	r6, #0
    1936:	d108      	bne.n	194a <system_gclk_gen_get_hz+0x5e>
    1938:	2c01      	cmp	r4, #1
    193a:	d904      	bls.n	1946 <system_gclk_gen_get_hz+0x5a>
    193c:	0028      	movs	r0, r5
    193e:	0021      	movs	r1, r4
    1940:	f000 fef4 	bl	272c <__udivsi3>
    1944:	0005      	movs	r5, r0
    1946:	0028      	movs	r0, r5
    1948:	bdf8      	pop	{r3, r4, r5, r6, r7, pc}
    194a:	3401      	adds	r4, #1
    194c:	40e5      	lsrs	r5, r4
    194e:	e7fa      	b.n	1946 <system_gclk_gen_get_hz+0x5a>
    1950:	40000c04 	.word	0x40000c04
    1954:	40000c00 	.word	0x40000c00
    1958:	40000c08 	.word	0x40000c08

0000195c <system_gclk_chan_enable>:
    195c:	b510      	push	{r4, lr}
    195e:	0004      	movs	r4, r0
    1960:	f7ff faa6 	bl	eb0 <cpu_irq_enter_critical>
    1964:	4b05      	ldr	r3, [pc, #20]	; (197c <system_gclk_chan_enable+0x20>)
    1966:	4a06      	ldr	r2, [pc, #24]	; (1980 <system_gclk_chan_enable+0x24>)
    1968:	701c      	strb	r4, [r3, #0]
    196a:	2380      	movs	r3, #128	; 0x80
    196c:	8851      	ldrh	r1, [r2, #2]
    196e:	01db      	lsls	r3, r3, #7
    1970:	430b      	orrs	r3, r1
    1972:	8053      	strh	r3, [r2, #2]
    1974:	f7ff fab6 	bl	ee4 <cpu_irq_leave_critical>
    1978:	bd10      	pop	{r4, pc}
    197a:	46c0      	nop			; (mov r8, r8)
    197c:	40000c02 	.word	0x40000c02
    1980:	40000c00 	.word	0x40000c00

00001984 <system_gclk_chan_disable>:
    1984:	b510      	push	{r4, lr}
    1986:	0004      	movs	r4, r0
    1988:	f7ff fa92 	bl	eb0 <cpu_irq_enter_critical>
    198c:	4b0d      	ldr	r3, [pc, #52]	; (19c4 <system_gclk_chan_disable+0x40>)
    198e:	4a0e      	ldr	r2, [pc, #56]	; (19c8 <system_gclk_chan_disable+0x44>)
    1990:	701c      	strb	r4, [r3, #0]
    1992:	4b0e      	ldr	r3, [pc, #56]	; (19cc <system_gclk_chan_disable+0x48>)
    1994:	4c0e      	ldr	r4, [pc, #56]	; (19d0 <system_gclk_chan_disable+0x4c>)
    1996:	8858      	ldrh	r0, [r3, #2]
    1998:	8859      	ldrh	r1, [r3, #2]
    199a:	0500      	lsls	r0, r0, #20
    199c:	4011      	ands	r1, r2
    199e:	8059      	strh	r1, [r3, #2]
    19a0:	8859      	ldrh	r1, [r3, #2]
    19a2:	0f00      	lsrs	r0, r0, #28
    19a4:	4021      	ands	r1, r4
    19a6:	8059      	strh	r1, [r3, #2]
    19a8:	0011      	movs	r1, r2
    19aa:	2280      	movs	r2, #128	; 0x80
    19ac:	01d2      	lsls	r2, r2, #7
    19ae:	885c      	ldrh	r4, [r3, #2]
    19b0:	4214      	tst	r4, r2
    19b2:	d1fc      	bne.n	19ae <system_gclk_chan_disable+0x2a>
    19b4:	885a      	ldrh	r2, [r3, #2]
    19b6:	0200      	lsls	r0, r0, #8
    19b8:	400a      	ands	r2, r1
    19ba:	4302      	orrs	r2, r0
    19bc:	805a      	strh	r2, [r3, #2]
    19be:	f7ff fa91 	bl	ee4 <cpu_irq_leave_critical>
    19c2:	bd10      	pop	{r4, pc}
    19c4:	40000c02 	.word	0x40000c02
    19c8:	fffff0ff 	.word	0xfffff0ff
    19cc:	40000c00 	.word	0x40000c00
    19d0:	ffffbfff 	.word	0xffffbfff

000019d4 <system_gclk_chan_set_config>:
    19d4:	b510      	push	{r4, lr}
    19d6:	780c      	ldrb	r4, [r1, #0]
    19d8:	0224      	lsls	r4, r4, #8
    19da:	4304      	orrs	r4, r0
    19dc:	f7ff ffd2 	bl	1984 <system_gclk_chan_disable>
    19e0:	4b01      	ldr	r3, [pc, #4]	; (19e8 <system_gclk_chan_set_config+0x14>)
    19e2:	b2a4      	uxth	r4, r4
    19e4:	805c      	strh	r4, [r3, #2]
    19e6:	bd10      	pop	{r4, pc}
    19e8:	40000c00 	.word	0x40000c00

000019ec <system_gclk_chan_get_hz>:
    19ec:	b510      	push	{r4, lr}
    19ee:	0004      	movs	r4, r0
    19f0:	f7ff fa5e 	bl	eb0 <cpu_irq_enter_critical>
    19f4:	4b05      	ldr	r3, [pc, #20]	; (1a0c <system_gclk_chan_get_hz+0x20>)
    19f6:	701c      	strb	r4, [r3, #0]
    19f8:	4b05      	ldr	r3, [pc, #20]	; (1a10 <system_gclk_chan_get_hz+0x24>)
    19fa:	885c      	ldrh	r4, [r3, #2]
    19fc:	f7ff fa72 	bl	ee4 <cpu_irq_leave_critical>
    1a00:	0524      	lsls	r4, r4, #20
    1a02:	0f24      	lsrs	r4, r4, #28
    1a04:	0020      	movs	r0, r4
    1a06:	f7ff ff71 	bl	18ec <system_gclk_gen_get_hz>
    1a0a:	bd10      	pop	{r4, pc}
    1a0c:	40000c02 	.word	0x40000c02
    1a10:	40000c00 	.word	0x40000c00

00001a14 <_system_pinmux_config>:
    1a14:	78d3      	ldrb	r3, [r2, #3]
    1a16:	b530      	push	{r4, r5, lr}
    1a18:	2b00      	cmp	r3, #0
    1a1a:	d135      	bne.n	1a88 <_system_pinmux_config+0x74>
    1a1c:	7814      	ldrb	r4, [r2, #0]
    1a1e:	2c80      	cmp	r4, #128	; 0x80
    1a20:	d003      	beq.n	1a2a <_system_pinmux_config+0x16>
    1a22:	2380      	movs	r3, #128	; 0x80
    1a24:	0624      	lsls	r4, r4, #24
    1a26:	025b      	lsls	r3, r3, #9
    1a28:	4323      	orrs	r3, r4
    1a2a:	2502      	movs	r5, #2
    1a2c:	7854      	ldrb	r4, [r2, #1]
    1a2e:	43ac      	bics	r4, r5
    1a30:	d106      	bne.n	1a40 <_system_pinmux_config+0x2c>
    1a32:	7894      	ldrb	r4, [r2, #2]
    1a34:	2c00      	cmp	r4, #0
    1a36:	d124      	bne.n	1a82 <_system_pinmux_config+0x6e>
    1a38:	2480      	movs	r4, #128	; 0x80
    1a3a:	02a4      	lsls	r4, r4, #10
    1a3c:	4323      	orrs	r3, r4
    1a3e:	6041      	str	r1, [r0, #4]
    1a40:	7854      	ldrb	r4, [r2, #1]
    1a42:	3c01      	subs	r4, #1
    1a44:	2c01      	cmp	r4, #1
    1a46:	d801      	bhi.n	1a4c <_system_pinmux_config+0x38>
    1a48:	4c12      	ldr	r4, [pc, #72]	; (1a94 <_system_pinmux_config+0x80>)
    1a4a:	4023      	ands	r3, r4
    1a4c:	24a0      	movs	r4, #160	; 0xa0
    1a4e:	b28d      	uxth	r5, r1
    1a50:	05e4      	lsls	r4, r4, #23
    1a52:	432c      	orrs	r4, r5
    1a54:	431c      	orrs	r4, r3
    1a56:	6284      	str	r4, [r0, #40]	; 0x28
    1a58:	24d0      	movs	r4, #208	; 0xd0
    1a5a:	0c0d      	lsrs	r5, r1, #16
    1a5c:	0624      	lsls	r4, r4, #24
    1a5e:	432c      	orrs	r4, r5
    1a60:	431c      	orrs	r4, r3
    1a62:	6284      	str	r4, [r0, #40]	; 0x28
    1a64:	78d4      	ldrb	r4, [r2, #3]
    1a66:	2c00      	cmp	r4, #0
    1a68:	d10a      	bne.n	1a80 <_system_pinmux_config+0x6c>
    1a6a:	035b      	lsls	r3, r3, #13
    1a6c:	d503      	bpl.n	1a76 <_system_pinmux_config+0x62>
    1a6e:	7893      	ldrb	r3, [r2, #2]
    1a70:	2b01      	cmp	r3, #1
    1a72:	d10c      	bne.n	1a8e <_system_pinmux_config+0x7a>
    1a74:	6181      	str	r1, [r0, #24]
    1a76:	7853      	ldrb	r3, [r2, #1]
    1a78:	3b01      	subs	r3, #1
    1a7a:	2b01      	cmp	r3, #1
    1a7c:	d800      	bhi.n	1a80 <_system_pinmux_config+0x6c>
    1a7e:	6081      	str	r1, [r0, #8]
    1a80:	bd30      	pop	{r4, r5, pc}
    1a82:	24c0      	movs	r4, #192	; 0xc0
    1a84:	02e4      	lsls	r4, r4, #11
    1a86:	e7d9      	b.n	1a3c <_system_pinmux_config+0x28>
    1a88:	6041      	str	r1, [r0, #4]
    1a8a:	2300      	movs	r3, #0
    1a8c:	e7de      	b.n	1a4c <_system_pinmux_config+0x38>
    1a8e:	6141      	str	r1, [r0, #20]
    1a90:	e7f1      	b.n	1a76 <_system_pinmux_config+0x62>
    1a92:	46c0      	nop			; (mov r8, r8)
    1a94:	fffbffff 	.word	0xfffbffff

00001a98 <system_pinmux_pin_set_config>:
    1a98:	b510      	push	{r4, lr}
    1a9a:	0003      	movs	r3, r0
    1a9c:	000a      	movs	r2, r1
    1a9e:	0944      	lsrs	r4, r0, #5
    1aa0:	09c1      	lsrs	r1, r0, #7
    1aa2:	2000      	movs	r0, #0
    1aa4:	4281      	cmp	r1, r0
    1aa6:	d102      	bne.n	1aae <system_pinmux_pin_set_config+0x16>
    1aa8:	4904      	ldr	r1, [pc, #16]	; (1abc <system_pinmux_pin_set_config+0x24>)
    1aaa:	01e0      	lsls	r0, r4, #7
    1aac:	1840      	adds	r0, r0, r1
    1aae:	211f      	movs	r1, #31
    1ab0:	400b      	ands	r3, r1
    1ab2:	391e      	subs	r1, #30
    1ab4:	4099      	lsls	r1, r3
    1ab6:	f7ff ffad 	bl	1a14 <_system_pinmux_config>
    1aba:	bd10      	pop	{r4, pc}
    1abc:	41004400 	.word	0x41004400

00001ac0 <_system_dummy_init>:
    1ac0:	4770      	bx	lr

00001ac2 <system_init>:
    1ac2:	b510      	push	{r4, lr}
    1ac4:	f7ff fe48 	bl	1758 <system_clock_init>
    1ac8:	f7ff fffa 	bl	1ac0 <_system_dummy_init>
    1acc:	f7fe fd68 	bl	5a0 <_system_extint_init>
    1ad0:	f7ff fff6 	bl	1ac0 <_system_dummy_init>
    1ad4:	bd10      	pop	{r4, pc}

00001ad6 <_tcc_get_inst_index>:
    1ad6:	2000      	movs	r0, #0
    1ad8:	4770      	bx	lr
	...

00001adc <_tcc_set_compare_value.isra.5>:
    1adc:	b530      	push	{r4, r5, lr}
    1ade:	0004      	movs	r4, r0
    1ae0:	2017      	movs	r0, #23
    1ae2:	2903      	cmp	r1, #3
    1ae4:	d813      	bhi.n	1b0e <_tcc_set_compare_value.isra.5+0x32>
    1ae6:	4d10      	ldr	r5, [pc, #64]	; (1b28 <_tcc_set_compare_value.isra.5+0x4c>)
    1ae8:	42aa      	cmp	r2, r5
    1aea:	d810      	bhi.n	1b0e <_tcc_set_compare_value.isra.5+0x32>
    1aec:	2b00      	cmp	r3, #0
    1aee:	d00f      	beq.n	1b10 <_tcc_set_compare_value.isra.5+0x34>
    1af0:	2380      	movs	r3, #128	; 0x80
    1af2:	025b      	lsls	r3, r3, #9
    1af4:	408b      	lsls	r3, r1
    1af6:	6b20      	ldr	r0, [r4, #48]	; 0x30
    1af8:	4203      	tst	r3, r0
    1afa:	d1fc      	bne.n	1af6 <_tcc_set_compare_value.isra.5+0x1a>
    1afc:	2580      	movs	r5, #128	; 0x80
    1afe:	032d      	lsls	r5, r5, #12
    1b00:	408d      	lsls	r5, r1
    1b02:	68a0      	ldr	r0, [r4, #8]
    1b04:	4028      	ands	r0, r5
    1b06:	d1fc      	bne.n	1b02 <_tcc_set_compare_value.isra.5+0x26>
    1b08:	311c      	adds	r1, #28
    1b0a:	0089      	lsls	r1, r1, #2
    1b0c:	510a      	str	r2, [r1, r4]
    1b0e:	bd30      	pop	{r4, r5, pc}
    1b10:	2080      	movs	r0, #128	; 0x80
    1b12:	0040      	lsls	r0, r0, #1
    1b14:	4088      	lsls	r0, r1
    1b16:	68a3      	ldr	r3, [r4, #8]
    1b18:	4003      	ands	r3, r0
    1b1a:	d1fc      	bne.n	1b16 <_tcc_set_compare_value.isra.5+0x3a>
    1b1c:	3110      	adds	r1, #16
    1b1e:	0089      	lsls	r1, r1, #2
    1b20:	1861      	adds	r1, r4, r1
    1b22:	604a      	str	r2, [r1, #4]
    1b24:	0018      	movs	r0, r3
    1b26:	e7f2      	b.n	1b0e <_tcc_set_compare_value.isra.5+0x32>
    1b28:	00ffffff 	.word	0x00ffffff

00001b2c <tcc_get_config_defaults>:
    1b2c:	4a37      	ldr	r2, [pc, #220]	; (1c0c <tcc_get_config_defaults+0xe0>)
    1b2e:	b510      	push	{r4, lr}
    1b30:	6042      	str	r2, [r0, #4]
    1b32:	0002      	movs	r2, r0
    1b34:	2300      	movs	r3, #0
    1b36:	0004      	movs	r4, r0
    1b38:	322c      	adds	r2, #44	; 0x2c
    1b3a:	3448      	adds	r4, #72	; 0x48
    1b3c:	6003      	str	r3, [r0, #0]
    1b3e:	7283      	strb	r3, [r0, #10]
    1b40:	72c3      	strb	r3, [r0, #11]
    1b42:	7303      	strb	r3, [r0, #12]
    1b44:	7243      	strb	r3, [r0, #9]
    1b46:	7203      	strb	r3, [r0, #8]
    1b48:	61c3      	str	r3, [r0, #28]
    1b4a:	6203      	str	r3, [r0, #32]
    1b4c:	6243      	str	r3, [r0, #36]	; 0x24
    1b4e:	6283      	str	r3, [r0, #40]	; 0x28
    1b50:	7503      	strb	r3, [r0, #20]
    1b52:	7543      	strb	r3, [r0, #21]
    1b54:	7583      	strb	r3, [r0, #22]
    1b56:	75c3      	strb	r3, [r0, #23]
    1b58:	7603      	strb	r3, [r0, #24]
    1b5a:	7643      	strb	r3, [r0, #25]
    1b5c:	7403      	strb	r3, [r0, #16]
    1b5e:	7443      	strb	r3, [r0, #17]
    1b60:	7483      	strb	r3, [r0, #18]
    1b62:	74c3      	strb	r3, [r0, #19]
    1b64:	7013      	strb	r3, [r2, #0]
    1b66:	7053      	strb	r3, [r2, #1]
    1b68:	7093      	strb	r3, [r2, #2]
    1b6a:	70d3      	strb	r3, [r2, #3]
    1b6c:	7113      	strb	r3, [r2, #4]
    1b6e:	7153      	strb	r3, [r2, #5]
    1b70:	7193      	strb	r3, [r2, #6]
    1b72:	71d3      	strb	r3, [r2, #7]
    1b74:	7213      	strb	r3, [r2, #8]
    1b76:	7253      	strb	r3, [r2, #9]
    1b78:	7293      	strb	r3, [r2, #10]
    1b7a:	72d3      	strb	r3, [r2, #11]
    1b7c:	320c      	adds	r2, #12
    1b7e:	7013      	strb	r3, [r2, #0]
    1b80:	7053      	strb	r3, [r2, #1]
    1b82:	7093      	strb	r3, [r2, #2]
    1b84:	70d3      	strb	r3, [r2, #3]
    1b86:	7113      	strb	r3, [r2, #4]
    1b88:	7153      	strb	r3, [r2, #5]
    1b8a:	7193      	strb	r3, [r2, #6]
    1b8c:	71d3      	strb	r3, [r2, #7]
    1b8e:	7213      	strb	r3, [r2, #8]
    1b90:	7253      	strb	r3, [r2, #9]
    1b92:	7293      	strb	r3, [r2, #10]
    1b94:	72d3      	strb	r3, [r2, #11]
    1b96:	7313      	strb	r3, [r2, #12]
    1b98:	7353      	strb	r3, [r2, #13]
    1b9a:	7393      	strb	r3, [r2, #14]
    1b9c:	73d3      	strb	r3, [r2, #15]
    1b9e:	1d01      	adds	r1, r0, #4
    1ba0:	7023      	strb	r3, [r4, #0]
    1ba2:	7063      	strb	r3, [r4, #1]
    1ba4:	70a3      	strb	r3, [r4, #2]
    1ba6:	70e3      	strb	r3, [r4, #3]
    1ba8:	7123      	strb	r3, [r4, #4]
    1baa:	7163      	strb	r3, [r4, #5]
    1bac:	71a3      	strb	r3, [r4, #6]
    1bae:	71e3      	strb	r3, [r4, #7]
    1bb0:	7223      	strb	r3, [r4, #8]
    1bb2:	7263      	strb	r3, [r4, #9]
    1bb4:	72a3      	strb	r3, [r4, #10]
    1bb6:	72e3      	strb	r3, [r4, #11]
    1bb8:	7323      	strb	r3, [r4, #12]
    1bba:	7363      	strb	r3, [r4, #13]
    1bbc:	73a3      	strb	r3, [r4, #14]
    1bbe:	73e3      	strb	r3, [r4, #15]
    1bc0:	3450      	adds	r4, #80	; 0x50
    1bc2:	7023      	strb	r3, [r4, #0]
    1bc4:	6583      	str	r3, [r0, #88]	; 0x58
    1bc6:	6783      	str	r3, [r0, #120]	; 0x78
    1bc8:	7063      	strb	r3, [r4, #1]
    1bca:	65c3      	str	r3, [r0, #92]	; 0x5c
    1bcc:	67c3      	str	r3, [r0, #124]	; 0x7c
    1bce:	70a3      	strb	r3, [r4, #2]
    1bd0:	6603      	str	r3, [r0, #96]	; 0x60
    1bd2:	67cb      	str	r3, [r1, #124]	; 0x7c
    1bd4:	3197      	adds	r1, #151	; 0x97
    1bd6:	700b      	strb	r3, [r1, #0]
    1bd8:	2101      	movs	r1, #1
    1bda:	3a30      	subs	r2, #48	; 0x30
    1bdc:	6643      	str	r3, [r0, #100]	; 0x64
    1bde:	67d3      	str	r3, [r2, #124]	; 0x7c
    1be0:	3294      	adds	r2, #148	; 0x94
    1be2:	7013      	strb	r3, [r2, #0]
    1be4:	3a14      	subs	r2, #20
    1be6:	6683      	str	r3, [r0, #104]	; 0x68
    1be8:	6013      	str	r3, [r2, #0]
    1bea:	7553      	strb	r3, [r2, #21]
    1bec:	3204      	adds	r2, #4
    1bee:	66c3      	str	r3, [r0, #108]	; 0x6c
    1bf0:	6013      	str	r3, [r2, #0]
    1bf2:	7493      	strb	r3, [r2, #18]
    1bf4:	3204      	adds	r2, #4
    1bf6:	6703      	str	r3, [r0, #112]	; 0x70
    1bf8:	6013      	str	r3, [r2, #0]
    1bfa:	73d3      	strb	r3, [r2, #15]
    1bfc:	6743      	str	r3, [r0, #116]	; 0x74
    1bfe:	3204      	adds	r2, #4
    1c00:	30a1      	adds	r0, #161	; 0xa1
    1c02:	6013      	str	r3, [r2, #0]
    1c04:	7311      	strb	r1, [r2, #12]
    1c06:	7003      	strb	r3, [r0, #0]
    1c08:	bd10      	pop	{r4, pc}
    1c0a:	46c0      	nop			; (mov r8, r8)
    1c0c:	00ffffff 	.word	0x00ffffff

00001c10 <tcc_init>:
    1c10:	b5f0      	push	{r4, r5, r6, r7, lr}
    1c12:	0006      	movs	r6, r0
    1c14:	b08f      	sub	sp, #60	; 0x3c
    1c16:	0008      	movs	r0, r1
    1c18:	000d      	movs	r5, r1
    1c1a:	0014      	movs	r4, r2
    1c1c:	f7ff ff5b 	bl	1ad6 <_tcc_get_inst_index>
    1c20:	2320      	movs	r3, #32
    1c22:	4aa3      	ldr	r2, [pc, #652]	; (1eb0 <tcc_init+0x2a0>)
    1c24:	9009      	str	r0, [sp, #36]	; 0x24
    1c26:	6a11      	ldr	r1, [r2, #32]
    1c28:	201c      	movs	r0, #28
    1c2a:	430b      	orrs	r3, r1
    1c2c:	6213      	str	r3, [r2, #32]
    1c2e:	682b      	ldr	r3, [r5, #0]
    1c30:	079b      	lsls	r3, r3, #30
    1c32:	d407      	bmi.n	1c44 <tcc_init+0x34>
    1c34:	682b      	ldr	r3, [r5, #0]
    1c36:	07db      	lsls	r3, r3, #31
    1c38:	d404      	bmi.n	1c44 <tcc_init+0x34>
    1c3a:	4a9e      	ldr	r2, [pc, #632]	; (1eb4 <tcc_init+0x2a4>)
    1c3c:	6823      	ldr	r3, [r4, #0]
    1c3e:	4293      	cmp	r3, r2
    1c40:	d902      	bls.n	1c48 <tcc_init+0x38>
    1c42:	2017      	movs	r0, #23
    1c44:	b00f      	add	sp, #60	; 0x3c
    1c46:	bdf0      	pop	{r4, r5, r6, r7, pc}
    1c48:	6863      	ldr	r3, [r4, #4]
    1c4a:	4293      	cmp	r3, r2
    1c4c:	d8f9      	bhi.n	1c42 <tcc_init+0x32>
    1c4e:	0023      	movs	r3, r4
    1c50:	0021      	movs	r1, r4
    1c52:	331c      	adds	r3, #28
    1c54:	312c      	adds	r1, #44	; 0x2c
    1c56:	6818      	ldr	r0, [r3, #0]
    1c58:	4290      	cmp	r0, r2
    1c5a:	d8f2      	bhi.n	1c42 <tcc_init+0x32>
    1c5c:	3304      	adds	r3, #4
    1c5e:	428b      	cmp	r3, r1
    1c60:	d1f9      	bne.n	1c56 <tcc_init+0x46>
    1c62:	2200      	movs	r2, #0
    1c64:	2180      	movs	r1, #128	; 0x80
    1c66:	9202      	str	r2, [sp, #8]
    1c68:	0449      	lsls	r1, r1, #17
    1c6a:	18a0      	adds	r0, r4, r2
    1c6c:	7c00      	ldrb	r0, [r0, #16]
    1c6e:	2801      	cmp	r0, #1
    1c70:	d104      	bne.n	1c7c <tcc_init+0x6c>
    1c72:	0008      	movs	r0, r1
    1c74:	4090      	lsls	r0, r2
    1c76:	9f02      	ldr	r7, [sp, #8]
    1c78:	4307      	orrs	r7, r0
    1c7a:	9702      	str	r7, [sp, #8]
    1c7c:	3201      	adds	r2, #1
    1c7e:	2a04      	cmp	r2, #4
    1c80:	d1f3      	bne.n	1c6a <tcc_init+0x5a>
    1c82:	0022      	movs	r2, r4
    1c84:	32a1      	adds	r2, #161	; 0xa1
    1c86:	7812      	ldrb	r2, [r2, #0]
    1c88:	2a00      	cmp	r2, #0
    1c8a:	d004      	beq.n	1c96 <tcc_init+0x86>
    1c8c:	2280      	movs	r2, #128	; 0x80
    1c8e:	9902      	ldr	r1, [sp, #8]
    1c90:	0112      	lsls	r2, r2, #4
    1c92:	4311      	orrs	r1, r2
    1c94:	9102      	str	r1, [sp, #8]
    1c96:	7a22      	ldrb	r2, [r4, #8]
    1c98:	1e51      	subs	r1, r2, #1
    1c9a:	418a      	sbcs	r2, r1
    1c9c:	0092      	lsls	r2, r2, #2
    1c9e:	9203      	str	r2, [sp, #12]
    1ca0:	7a62      	ldrb	r2, [r4, #9]
    1ca2:	2a01      	cmp	r2, #1
    1ca4:	d102      	bne.n	1cac <tcc_init+0x9c>
    1ca6:	9903      	ldr	r1, [sp, #12]
    1ca8:	4311      	orrs	r1, r2
    1caa:	9103      	str	r1, [sp, #12]
    1cac:	7b22      	ldrb	r2, [r4, #12]
    1cae:	9206      	str	r2, [sp, #24]
    1cb0:	7ae2      	ldrb	r2, [r4, #11]
    1cb2:	9207      	str	r2, [sp, #28]
    1cb4:	2200      	movs	r2, #0
    1cb6:	4694      	mov	ip, r2
    1cb8:	7a5f      	ldrb	r7, [r3, #9]
    1cba:	2f03      	cmp	r7, #3
    1cbc:	d8c1      	bhi.n	1c42 <tcc_init+0x32>
    1cbe:	7819      	ldrb	r1, [r3, #0]
    1cc0:	290f      	cmp	r1, #15
    1cc2:	d8be      	bhi.n	1c42 <tcc_init+0x32>
    1cc4:	20f0      	movs	r0, #240	; 0xf0
    1cc6:	785a      	ldrb	r2, [r3, #1]
    1cc8:	0500      	lsls	r0, r0, #20
    1cca:	0609      	lsls	r1, r1, #24
    1ccc:	4001      	ands	r1, r0
    1cce:	0412      	lsls	r2, r2, #16
    1cd0:	430a      	orrs	r2, r1
    1cd2:	7899      	ldrb	r1, [r3, #2]
    1cd4:	9201      	str	r2, [sp, #4]
    1cd6:	1e48      	subs	r0, r1, #1
    1cd8:	4181      	sbcs	r1, r0
    1cda:	01c9      	lsls	r1, r1, #7
    1cdc:	9104      	str	r1, [sp, #16]
    1cde:	78d9      	ldrb	r1, [r3, #3]
    1ce0:	2203      	movs	r2, #3
    1ce2:	1e48      	subs	r0, r1, #1
    1ce4:	4181      	sbcs	r1, r0
    1ce6:	7918      	ldrb	r0, [r3, #4]
    1ce8:	00c9      	lsls	r1, r1, #3
    1cea:	9105      	str	r1, [sp, #20]
    1cec:	1e41      	subs	r1, r0, #1
    1cee:	4188      	sbcs	r0, r1
    1cf0:	0101      	lsls	r1, r0, #4
    1cf2:	2060      	movs	r0, #96	; 0x60
    1cf4:	9108      	str	r1, [sp, #32]
    1cf6:	7999      	ldrb	r1, [r3, #6]
    1cf8:	02bf      	lsls	r7, r7, #10
    1cfa:	0149      	lsls	r1, r1, #5
    1cfc:	4001      	ands	r1, r0
    1cfe:	7958      	ldrb	r0, [r3, #5]
    1d00:	4010      	ands	r0, r2
    1d02:	9a01      	ldr	r2, [sp, #4]
    1d04:	4302      	orrs	r2, r0
    1d06:	430a      	orrs	r2, r1
    1d08:	21c0      	movs	r1, #192	; 0xc0
    1d0a:	79d8      	ldrb	r0, [r3, #7]
    1d0c:	0089      	lsls	r1, r1, #2
    1d0e:	0200      	lsls	r0, r0, #8
    1d10:	4001      	ands	r1, r0
    1d12:	20e0      	movs	r0, #224	; 0xe0
    1d14:	4311      	orrs	r1, r2
    1d16:	7a1a      	ldrb	r2, [r3, #8]
    1d18:	01c0      	lsls	r0, r0, #7
    1d1a:	0312      	lsls	r2, r2, #12
    1d1c:	4002      	ands	r2, r0
    1d1e:	20c0      	movs	r0, #192	; 0xc0
    1d20:	0100      	lsls	r0, r0, #4
    1d22:	4311      	orrs	r1, r2
    1d24:	4007      	ands	r7, r0
    1d26:	430f      	orrs	r7, r1
    1d28:	4661      	mov	r1, ip
    1d2a:	9a04      	ldr	r2, [sp, #16]
    1d2c:	330a      	adds	r3, #10
    1d2e:	4317      	orrs	r7, r2
    1d30:	9a05      	ldr	r2, [sp, #20]
    1d32:	4317      	orrs	r7, r2
    1d34:	9a08      	ldr	r2, [sp, #32]
    1d36:	4317      	orrs	r7, r2
    1d38:	aa0c      	add	r2, sp, #48	; 0x30
    1d3a:	508f      	str	r7, [r1, r2]
    1d3c:	2204      	movs	r2, #4
    1d3e:	4494      	add	ip, r2
    1d40:	4662      	mov	r2, ip
    1d42:	2a08      	cmp	r2, #8
    1d44:	d1b8      	bne.n	1cb8 <tcc_init+0xa8>
    1d46:	2280      	movs	r2, #128	; 0x80
    1d48:	2300      	movs	r3, #0
    1d4a:	0252      	lsls	r2, r2, #9
    1d4c:	2002      	movs	r0, #2
    1d4e:	4694      	mov	ip, r2
    1d50:	9301      	str	r3, [sp, #4]
    1d52:	30ff      	adds	r0, #255	; 0xff
    1d54:	18e2      	adds	r2, r4, r3
    1d56:	0017      	movs	r7, r2
    1d58:	3750      	adds	r7, #80	; 0x50
    1d5a:	783f      	ldrb	r7, [r7, #0]
    1d5c:	2f00      	cmp	r7, #0
    1d5e:	d004      	beq.n	1d6a <tcc_init+0x15a>
    1d60:	4667      	mov	r7, ip
    1d62:	409f      	lsls	r7, r3
    1d64:	9901      	ldr	r1, [sp, #4]
    1d66:	4339      	orrs	r1, r7
    1d68:	9101      	str	r1, [sp, #4]
    1d6a:	001f      	movs	r7, r3
    1d6c:	3741      	adds	r7, #65	; 0x41
    1d6e:	5dd2      	ldrb	r2, [r2, r7]
    1d70:	2a00      	cmp	r2, #0
    1d72:	d007      	beq.n	1d84 <tcc_init+0x174>
    1d74:	2a02      	cmp	r2, #2
    1d76:	d000      	beq.n	1d7a <tcc_init+0x16a>
    1d78:	e098      	b.n	1eac <tcc_init+0x29c>
    1d7a:	0002      	movs	r2, r0
    1d7c:	409a      	lsls	r2, r3
    1d7e:	9901      	ldr	r1, [sp, #4]
    1d80:	4311      	orrs	r1, r2
    1d82:	9101      	str	r1, [sp, #4]
    1d84:	3301      	adds	r3, #1
    1d86:	2b08      	cmp	r3, #8
    1d88:	d1e4      	bne.n	1d54 <tcc_init+0x144>
    1d8a:	2230      	movs	r2, #48	; 0x30
    1d8c:	2107      	movs	r1, #7
    1d8e:	7e63      	ldrb	r3, [r4, #25]
    1d90:	011b      	lsls	r3, r3, #4
    1d92:	4013      	ands	r3, r2
    1d94:	7e22      	ldrb	r2, [r4, #24]
    1d96:	400a      	ands	r2, r1
    1d98:	4313      	orrs	r3, r2
    1d9a:	2280      	movs	r2, #128	; 0x80
    1d9c:	9304      	str	r3, [sp, #16]
    1d9e:	2300      	movs	r3, #0
    1da0:	0252      	lsls	r2, r2, #9
    1da2:	18e1      	adds	r1, r4, r3
    1da4:	7d09      	ldrb	r1, [r1, #20]
    1da6:	2900      	cmp	r1, #0
    1da8:	d004      	beq.n	1db4 <tcc_init+0x1a4>
    1daa:	0011      	movs	r1, r2
    1dac:	4099      	lsls	r1, r3
    1dae:	9804      	ldr	r0, [sp, #16]
    1db0:	4308      	orrs	r0, r1
    1db2:	9004      	str	r0, [sp, #16]
    1db4:	3301      	adds	r3, #1
    1db6:	2b04      	cmp	r3, #4
    1db8:	d1f3      	bne.n	1da2 <tcc_init+0x192>
    1dba:	0031      	movs	r1, r6
    1dbc:	2300      	movs	r3, #0
    1dbe:	1d32      	adds	r2, r6, #4
    1dc0:	3134      	adds	r1, #52	; 0x34
    1dc2:	c208      	stmia	r2!, {r3}
    1dc4:	428a      	cmp	r2, r1
    1dc6:	d1fc      	bne.n	1dc2 <tcc_init+0x1b2>
    1dc8:	6373      	str	r3, [r6, #52]	; 0x34
    1dca:	63b3      	str	r3, [r6, #56]	; 0x38
    1dcc:	9b09      	ldr	r3, [sp, #36]	; 0x24
    1dce:	aa0a      	add	r2, sp, #40	; 0x28
    1dd0:	0098      	lsls	r0, r3, #2
    1dd2:	4b39      	ldr	r3, [pc, #228]	; (1eb8 <tcc_init+0x2a8>)
    1dd4:	0011      	movs	r1, r2
    1dd6:	50c6      	str	r6, [r0, r3]
    1dd8:	0023      	movs	r3, r4
    1dda:	6035      	str	r5, [r6, #0]
    1ddc:	33a0      	adds	r3, #160	; 0xa0
    1dde:	781b      	ldrb	r3, [r3, #0]
    1de0:	363c      	adds	r6, #60	; 0x3c
    1de2:	7033      	strb	r3, [r6, #0]
    1de4:	7aa3      	ldrb	r3, [r4, #10]
    1de6:	2011      	movs	r0, #17
    1de8:	7013      	strb	r3, [r2, #0]
    1dea:	f7ff fdf3 	bl	19d4 <system_gclk_chan_set_config>
    1dee:	2011      	movs	r0, #17
    1df0:	f7ff fdb4 	bl	195c <system_gclk_chan_enable>
    1df4:	0023      	movs	r3, r4
    1df6:	0027      	movs	r7, r4
    1df8:	0026      	movs	r6, r4
    1dfa:	3378      	adds	r3, #120	; 0x78
    1dfc:	3798      	adds	r7, #152	; 0x98
    1dfe:	3658      	adds	r6, #88	; 0x58
    1e00:	9305      	str	r3, [sp, #20]
    1e02:	783b      	ldrb	r3, [r7, #0]
    1e04:	2b00      	cmp	r3, #0
    1e06:	d00d      	beq.n	1e24 <tcc_init+0x214>
    1e08:	2301      	movs	r3, #1
    1e0a:	a90b      	add	r1, sp, #44	; 0x2c
    1e0c:	708b      	strb	r3, [r1, #2]
    1e0e:	2300      	movs	r3, #0
    1e10:	70cb      	strb	r3, [r1, #3]
    1e12:	3320      	adds	r3, #32
    1e14:	18f3      	adds	r3, r6, r3
    1e16:	781b      	ldrb	r3, [r3, #0]
    1e18:	7830      	ldrb	r0, [r6, #0]
    1e1a:	700b      	strb	r3, [r1, #0]
    1e1c:	2301      	movs	r3, #1
    1e1e:	704b      	strb	r3, [r1, #1]
    1e20:	f7ff fe3a 	bl	1a98 <system_pinmux_pin_set_config>
    1e24:	9b05      	ldr	r3, [sp, #20]
    1e26:	3604      	adds	r6, #4
    1e28:	3701      	adds	r7, #1
    1e2a:	42b3      	cmp	r3, r6
    1e2c:	d1e9      	bne.n	1e02 <tcc_init+0x1f2>
    1e2e:	9b06      	ldr	r3, [sp, #24]
    1e30:	9a07      	ldr	r2, [sp, #28]
    1e32:	031b      	lsls	r3, r3, #12
    1e34:	0212      	lsls	r2, r2, #8
    1e36:	4313      	orrs	r3, r2
    1e38:	9a02      	ldr	r2, [sp, #8]
    1e3a:	4313      	orrs	r3, r2
    1e3c:	602b      	str	r3, [r5, #0]
    1e3e:	2304      	movs	r3, #4
    1e40:	68aa      	ldr	r2, [r5, #8]
    1e42:	421a      	tst	r2, r3
    1e44:	d1fc      	bne.n	1e40 <tcc_init+0x230>
    1e46:	23ff      	movs	r3, #255	; 0xff
    1e48:	712b      	strb	r3, [r5, #4]
    1e4a:	3bfb      	subs	r3, #251	; 0xfb
    1e4c:	68aa      	ldr	r2, [r5, #8]
    1e4e:	421a      	tst	r2, r3
    1e50:	d1fc      	bne.n	1e4c <tcc_init+0x23c>
    1e52:	466b      	mov	r3, sp
    1e54:	7b1b      	ldrb	r3, [r3, #12]
    1e56:	716b      	strb	r3, [r5, #5]
    1e58:	9b0c      	ldr	r3, [sp, #48]	; 0x30
    1e5a:	60eb      	str	r3, [r5, #12]
    1e5c:	9b0d      	ldr	r3, [sp, #52]	; 0x34
    1e5e:	612b      	str	r3, [r5, #16]
    1e60:	9b01      	ldr	r3, [sp, #4]
    1e62:	61ab      	str	r3, [r5, #24]
    1e64:	4b15      	ldr	r3, [pc, #84]	; (1ebc <tcc_init+0x2ac>)
    1e66:	68aa      	ldr	r2, [r5, #8]
    1e68:	421a      	tst	r2, r3
    1e6a:	d1fc      	bne.n	1e66 <tcc_init+0x256>
    1e6c:	9b04      	ldr	r3, [sp, #16]
    1e6e:	63eb      	str	r3, [r5, #60]	; 0x3c
    1e70:	2310      	movs	r3, #16
    1e72:	68aa      	ldr	r2, [r5, #8]
    1e74:	421a      	tst	r2, r3
    1e76:	d1fc      	bne.n	1e72 <tcc_init+0x262>
    1e78:	6823      	ldr	r3, [r4, #0]
    1e7a:	4a11      	ldr	r2, [pc, #68]	; (1ec0 <tcc_init+0x2b0>)
    1e7c:	636b      	str	r3, [r5, #52]	; 0x34
    1e7e:	68ab      	ldr	r3, [r5, #8]
    1e80:	4013      	ands	r3, r2
    1e82:	d1fc      	bne.n	1e7e <tcc_init+0x26e>
    1e84:	6862      	ldr	r2, [r4, #4]
    1e86:	490f      	ldr	r1, [pc, #60]	; (1ec4 <tcc_init+0x2b4>)
    1e88:	642a      	str	r2, [r5, #64]	; 0x40
    1e8a:	000a      	movs	r2, r1
    1e8c:	409a      	lsls	r2, r3
    1e8e:	68a8      	ldr	r0, [r5, #8]
    1e90:	4010      	ands	r0, r2
    1e92:	d1fc      	bne.n	1e8e <tcc_init+0x27e>
    1e94:	009a      	lsls	r2, r3, #2
    1e96:	18a2      	adds	r2, r4, r2
    1e98:	69d6      	ldr	r6, [r2, #28]
    1e9a:	001a      	movs	r2, r3
    1e9c:	3210      	adds	r2, #16
    1e9e:	0092      	lsls	r2, r2, #2
    1ea0:	18aa      	adds	r2, r5, r2
    1ea2:	3301      	adds	r3, #1
    1ea4:	6056      	str	r6, [r2, #4]
    1ea6:	2b04      	cmp	r3, #4
    1ea8:	d1ef      	bne.n	1e8a <tcc_init+0x27a>
    1eaa:	e6cb      	b.n	1c44 <tcc_init+0x34>
    1eac:	2201      	movs	r2, #1
    1eae:	e765      	b.n	1d7c <tcc_init+0x16c>
    1eb0:	40000400 	.word	0x40000400
    1eb4:	00ffffff 	.word	0x00ffffff
    1eb8:	20000210 	.word	0x20000210
    1ebc:	00020040 	.word	0x00020040
    1ec0:	00040080 	.word	0x00040080
    1ec4:	00080100 	.word	0x00080100

00001ec8 <tcc_set_compare_value>:
    1ec8:	0003      	movs	r3, r0
    1eca:	b510      	push	{r4, lr}
    1ecc:	333c      	adds	r3, #60	; 0x3c
    1ece:	781b      	ldrb	r3, [r3, #0]
    1ed0:	6800      	ldr	r0, [r0, #0]
    1ed2:	f7ff fe03 	bl	1adc <_tcc_set_compare_value.isra.5>
    1ed6:	bd10      	pop	{r4, pc}

00001ed8 <_tcc_interrupt_handler>:
    1ed8:	b5f8      	push	{r3, r4, r5, r6, r7, lr}
    1eda:	2500      	movs	r5, #0
    1edc:	4b0b      	ldr	r3, [pc, #44]	; (1f0c <_tcc_interrupt_handler+0x34>)
    1ede:	0080      	lsls	r0, r0, #2
    1ee0:	58c4      	ldr	r4, [r0, r3]
    1ee2:	6823      	ldr	r3, [r4, #0]
    1ee4:	6b62      	ldr	r2, [r4, #52]	; 0x34
    1ee6:	6ade      	ldr	r6, [r3, #44]	; 0x2c
    1ee8:	6ba3      	ldr	r3, [r4, #56]	; 0x38
    1eea:	4013      	ands	r3, r2
    1eec:	401e      	ands	r6, r3
    1eee:	4b08      	ldr	r3, [pc, #32]	; (1f10 <_tcc_interrupt_handler+0x38>)
    1ef0:	58ef      	ldr	r7, [r5, r3]
    1ef2:	4237      	tst	r7, r6
    1ef4:	d005      	beq.n	1f02 <_tcc_interrupt_handler+0x2a>
    1ef6:	1963      	adds	r3, r4, r5
    1ef8:	685b      	ldr	r3, [r3, #4]
    1efa:	0020      	movs	r0, r4
    1efc:	4798      	blx	r3
    1efe:	6823      	ldr	r3, [r4, #0]
    1f00:	62df      	str	r7, [r3, #44]	; 0x2c
    1f02:	3504      	adds	r5, #4
    1f04:	2d30      	cmp	r5, #48	; 0x30
    1f06:	d1f2      	bne.n	1eee <_tcc_interrupt_handler+0x16>
    1f08:	bdf8      	pop	{r3, r4, r5, r6, r7, pc}
    1f0a:	46c0      	nop			; (mov r8, r8)
    1f0c:	20000210 	.word	0x20000210
    1f10:	00002900 	.word	0x00002900

00001f14 <TCC0_Handler>:
    1f14:	b510      	push	{r4, lr}
    1f16:	2000      	movs	r0, #0
    1f18:	f7ff ffde 	bl	1ed8 <_tcc_interrupt_handler>
    1f1c:	bd10      	pop	{r4, pc}

00001f1e <tc_register_callback>:
    1f1e:	1c93      	adds	r3, r2, #2
    1f20:	009b      	lsls	r3, r3, #2
    1f22:	5019      	str	r1, [r3, r0]
    1f24:	7e03      	ldrb	r3, [r0, #24]
    1f26:	2a02      	cmp	r2, #2
    1f28:	d104      	bne.n	1f34 <tc_register_callback+0x16>
    1f2a:	320e      	adds	r2, #14
    1f2c:	4313      	orrs	r3, r2
    1f2e:	7603      	strb	r3, [r0, #24]
    1f30:	2000      	movs	r0, #0
    1f32:	4770      	bx	lr
    1f34:	2a03      	cmp	r2, #3
    1f36:	d101      	bne.n	1f3c <tc_register_callback+0x1e>
    1f38:	321d      	adds	r2, #29
    1f3a:	e7f7      	b.n	1f2c <tc_register_callback+0xe>
    1f3c:	2101      	movs	r1, #1
    1f3e:	4091      	lsls	r1, r2
    1f40:	430b      	orrs	r3, r1
    1f42:	e7f4      	b.n	1f2e <tc_register_callback+0x10>

00001f44 <_tc_interrupt_handler>:
    1f44:	b570      	push	{r4, r5, r6, lr}
    1f46:	2601      	movs	r6, #1
    1f48:	4b14      	ldr	r3, [pc, #80]	; (1f9c <_tc_interrupt_handler+0x58>)
    1f4a:	0080      	lsls	r0, r0, #2
    1f4c:	58c4      	ldr	r4, [r0, r3]
    1f4e:	6823      	ldr	r3, [r4, #0]
    1f50:	7e22      	ldrb	r2, [r4, #24]
    1f52:	7e65      	ldrb	r5, [r4, #25]
    1f54:	7b9b      	ldrb	r3, [r3, #14]
    1f56:	4015      	ands	r5, r2
    1f58:	401d      	ands	r5, r3
    1f5a:	4235      	tst	r5, r6
    1f5c:	d004      	beq.n	1f68 <_tc_interrupt_handler+0x24>
    1f5e:	68a3      	ldr	r3, [r4, #8]
    1f60:	0020      	movs	r0, r4
    1f62:	4798      	blx	r3
    1f64:	6823      	ldr	r3, [r4, #0]
    1f66:	739e      	strb	r6, [r3, #14]
    1f68:	2602      	movs	r6, #2
    1f6a:	4235      	tst	r5, r6
    1f6c:	d004      	beq.n	1f78 <_tc_interrupt_handler+0x34>
    1f6e:	68e3      	ldr	r3, [r4, #12]
    1f70:	0020      	movs	r0, r4
    1f72:	4798      	blx	r3
    1f74:	6823      	ldr	r3, [r4, #0]
    1f76:	739e      	strb	r6, [r3, #14]
    1f78:	2610      	movs	r6, #16
    1f7a:	4235      	tst	r5, r6
    1f7c:	d004      	beq.n	1f88 <_tc_interrupt_handler+0x44>
    1f7e:	6923      	ldr	r3, [r4, #16]
    1f80:	0020      	movs	r0, r4
    1f82:	4798      	blx	r3
    1f84:	6823      	ldr	r3, [r4, #0]
    1f86:	739e      	strb	r6, [r3, #14]
    1f88:	2620      	movs	r6, #32
    1f8a:	4235      	tst	r5, r6
    1f8c:	d004      	beq.n	1f98 <_tc_interrupt_handler+0x54>
    1f8e:	6963      	ldr	r3, [r4, #20]
    1f90:	0020      	movs	r0, r4
    1f92:	4798      	blx	r3
    1f94:	6823      	ldr	r3, [r4, #0]
    1f96:	739e      	strb	r6, [r3, #14]
    1f98:	bd70      	pop	{r4, r5, r6, pc}
    1f9a:	46c0      	nop			; (mov r8, r8)
    1f9c:	20000214 	.word	0x20000214

00001fa0 <TC1_Handler>:
    1fa0:	b510      	push	{r4, lr}
    1fa2:	2000      	movs	r0, #0
    1fa4:	f7ff ffce 	bl	1f44 <_tc_interrupt_handler>
    1fa8:	bd10      	pop	{r4, pc}

00001faa <TC2_Handler>:
    1faa:	b510      	push	{r4, lr}
    1fac:	2001      	movs	r0, #1
    1fae:	f7ff ffc9 	bl	1f44 <_tc_interrupt_handler>
    1fb2:	bd10      	pop	{r4, pc}

00001fb4 <_tc_get_inst_index>:
    1fb4:	4b06      	ldr	r3, [pc, #24]	; (1fd0 <_tc_get_inst_index+0x1c>)
    1fb6:	4298      	cmp	r0, r3
    1fb8:	d007      	beq.n	1fca <_tc_get_inst_index+0x16>
    1fba:	4a06      	ldr	r2, [pc, #24]	; (1fd4 <_tc_get_inst_index+0x20>)
    1fbc:	2300      	movs	r3, #0
    1fbe:	4290      	cmp	r0, r2
    1fc0:	d101      	bne.n	1fc6 <_tc_get_inst_index+0x12>
    1fc2:	3301      	adds	r3, #1
    1fc4:	b2db      	uxtb	r3, r3
    1fc6:	0018      	movs	r0, r3
    1fc8:	4770      	bx	lr
    1fca:	2300      	movs	r3, #0
    1fcc:	e7fa      	b.n	1fc4 <_tc_get_inst_index+0x10>
    1fce:	46c0      	nop			; (mov r8, r8)
    1fd0:	42001800 	.word	0x42001800
    1fd4:	42001c00 	.word	0x42001c00

00001fd8 <tc_init>:
    1fd8:	b5f0      	push	{r4, r5, r6, r7, lr}
    1fda:	0005      	movs	r5, r0
    1fdc:	b085      	sub	sp, #20
    1fde:	0008      	movs	r0, r1
    1fe0:	0014      	movs	r4, r2
    1fe2:	000e      	movs	r6, r1
    1fe4:	f7ff ffe6 	bl	1fb4 <_tc_get_inst_index>
    1fe8:	466a      	mov	r2, sp
    1fea:	2312      	movs	r3, #18
    1fec:	7113      	strb	r3, [r2, #4]
    1fee:	7153      	strb	r3, [r2, #5]
    1ff0:	332e      	adds	r3, #46	; 0x2e
    1ff2:	8113      	strh	r3, [r2, #8]
    1ff4:	3340      	adds	r3, #64	; 0x40
    1ff6:	8153      	strh	r3, [r2, #10]
    1ff8:	2300      	movs	r3, #0
    1ffa:	60ab      	str	r3, [r5, #8]
    1ffc:	60eb      	str	r3, [r5, #12]
    1ffe:	612b      	str	r3, [r5, #16]
    2000:	616b      	str	r3, [r5, #20]
    2002:	762b      	strb	r3, [r5, #24]
    2004:	766b      	strb	r3, [r5, #25]
    2006:	4b7c      	ldr	r3, [pc, #496]	; (21f8 <tc_init+0x220>)
    2008:	0082      	lsls	r2, r0, #2
    200a:	50d5      	str	r5, [r2, r3]
    200c:	602e      	str	r6, [r5, #0]
    200e:	78a3      	ldrb	r3, [r4, #2]
    2010:	0007      	movs	r7, r0
    2012:	2b08      	cmp	r3, #8
    2014:	d103      	bne.n	201e <tc_init+0x46>
    2016:	2017      	movs	r0, #23
    2018:	07fa      	lsls	r2, r7, #31
    201a:	d500      	bpl.n	201e <tc_init+0x46>
    201c:	e0d5      	b.n	21ca <tc_init+0x1f2>
    201e:	2201      	movs	r2, #1
    2020:	712b      	strb	r3, [r5, #4]
    2022:	8833      	ldrh	r3, [r6, #0]
    2024:	2005      	movs	r0, #5
    2026:	4213      	tst	r3, r2
    2028:	d000      	beq.n	202c <tc_init+0x54>
    202a:	e0ce      	b.n	21ca <tc_init+0x1f2>
    202c:	7bf3      	ldrb	r3, [r6, #15]
    202e:	3017      	adds	r0, #23
    2030:	06db      	lsls	r3, r3, #27
    2032:	d500      	bpl.n	2036 <tc_init+0x5e>
    2034:	e0c9      	b.n	21ca <tc_init+0x1f2>
    2036:	2102      	movs	r1, #2
    2038:	8833      	ldrh	r3, [r6, #0]
    203a:	400b      	ands	r3, r1
    203c:	d000      	beq.n	2040 <tc_init+0x68>
    203e:	e0c4      	b.n	21ca <tc_init+0x1f2>
    2040:	7c21      	ldrb	r1, [r4, #16]
    2042:	2900      	cmp	r1, #0
    2044:	d008      	beq.n	2058 <tc_init+0x80>
    2046:	a903      	add	r1, sp, #12
    2048:	70cb      	strb	r3, [r1, #3]
    204a:	7e23      	ldrb	r3, [r4, #24]
    204c:	7d20      	ldrb	r0, [r4, #20]
    204e:	708a      	strb	r2, [r1, #2]
    2050:	700b      	strb	r3, [r1, #0]
    2052:	704a      	strb	r2, [r1, #1]
    2054:	f7ff fd20 	bl	1a98 <system_pinmux_pin_set_config>
    2058:	7f23      	ldrb	r3, [r4, #28]
    205a:	2b00      	cmp	r3, #0
    205c:	d00e      	beq.n	207c <tc_init+0xa4>
    205e:	2200      	movs	r2, #0
    2060:	2301      	movs	r3, #1
    2062:	a903      	add	r1, sp, #12
    2064:	70ca      	strb	r2, [r1, #3]
    2066:	3224      	adds	r2, #36	; 0x24
    2068:	708b      	strb	r3, [r1, #2]
    206a:	18a2      	adds	r2, r4, r2
    206c:	704b      	strb	r3, [r1, #1]
    206e:	331f      	adds	r3, #31
    2070:	7812      	ldrb	r2, [r2, #0]
    2072:	18e3      	adds	r3, r4, r3
    2074:	7818      	ldrb	r0, [r3, #0]
    2076:	700a      	strb	r2, [r1, #0]
    2078:	f7ff fd0e 	bl	1a98 <system_pinmux_pin_set_config>
    207c:	007a      	lsls	r2, r7, #1
    207e:	4694      	mov	ip, r2
    2080:	4668      	mov	r0, sp
    2082:	2208      	movs	r2, #8
    2084:	1880      	adds	r0, r0, r2
    2086:	4662      	mov	r2, ip
    2088:	4b5c      	ldr	r3, [pc, #368]	; (21fc <tc_init+0x224>)
    208a:	5a82      	ldrh	r2, [r0, r2]
    208c:	6a19      	ldr	r1, [r3, #32]
    208e:	430a      	orrs	r2, r1
    2090:	621a      	str	r2, [r3, #32]
    2092:	78a2      	ldrb	r2, [r4, #2]
    2094:	2a08      	cmp	r2, #8
    2096:	d10a      	bne.n	20ae <tc_init+0xd6>
    2098:	1c79      	adds	r1, r7, #1
    209a:	004a      	lsls	r2, r1, #1
    209c:	4694      	mov	ip, r2
    209e:	2108      	movs	r1, #8
    20a0:	466a      	mov	r2, sp
    20a2:	1852      	adds	r2, r2, r1
    20a4:	4661      	mov	r1, ip
    20a6:	6a18      	ldr	r0, [r3, #32]
    20a8:	5a52      	ldrh	r2, [r2, r1]
    20aa:	4302      	orrs	r2, r0
    20ac:	621a      	str	r2, [r3, #32]
    20ae:	466a      	mov	r2, sp
    20b0:	7823      	ldrb	r3, [r4, #0]
    20b2:	4669      	mov	r1, sp
    20b4:	7013      	strb	r3, [r2, #0]
    20b6:	466b      	mov	r3, sp
    20b8:	3304      	adds	r3, #4
    20ba:	5ddf      	ldrb	r7, [r3, r7]
    20bc:	0038      	movs	r0, r7
    20be:	f7ff fc89 	bl	19d4 <system_gclk_chan_set_config>
    20c2:	0038      	movs	r0, r7
    20c4:	f7ff fc4a 	bl	195c <system_gclk_chan_enable>
    20c8:	8923      	ldrh	r3, [r4, #8]
    20ca:	88a2      	ldrh	r2, [r4, #4]
    20cc:	79a1      	ldrb	r1, [r4, #6]
    20ce:	431a      	orrs	r2, r3
    20d0:	78a3      	ldrb	r3, [r4, #2]
    20d2:	430b      	orrs	r3, r1
    20d4:	4313      	orrs	r3, r2
    20d6:	7862      	ldrb	r2, [r4, #1]
    20d8:	2a00      	cmp	r2, #0
    20da:	d002      	beq.n	20e2 <tc_init+0x10a>
    20dc:	2280      	movs	r2, #128	; 0x80
    20de:	0112      	lsls	r2, r2, #4
    20e0:	4313      	orrs	r3, r2
    20e2:	6829      	ldr	r1, [r5, #0]
    20e4:	7bca      	ldrb	r2, [r1, #15]
    20e6:	b252      	sxtb	r2, r2
    20e8:	2a00      	cmp	r2, #0
    20ea:	dbfb      	blt.n	20e4 <tc_init+0x10c>
    20ec:	8033      	strh	r3, [r6, #0]
    20ee:	7b63      	ldrb	r3, [r4, #13]
    20f0:	1e5a      	subs	r2, r3, #1
    20f2:	4193      	sbcs	r3, r2
    20f4:	7ba2      	ldrb	r2, [r4, #14]
    20f6:	009b      	lsls	r3, r3, #2
    20f8:	2a00      	cmp	r2, #0
    20fa:	d001      	beq.n	2100 <tc_init+0x128>
    20fc:	2201      	movs	r2, #1
    20fe:	4313      	orrs	r3, r2
    2100:	6829      	ldr	r1, [r5, #0]
    2102:	7bca      	ldrb	r2, [r1, #15]
    2104:	b252      	sxtb	r2, r2
    2106:	2a00      	cmp	r2, #0
    2108:	dbfb      	blt.n	2102 <tc_init+0x12a>
    210a:	22ff      	movs	r2, #255	; 0xff
    210c:	7132      	strb	r2, [r6, #4]
    210e:	2b00      	cmp	r3, #0
    2110:	d005      	beq.n	211e <tc_init+0x146>
    2112:	6829      	ldr	r1, [r5, #0]
    2114:	7bca      	ldrb	r2, [r1, #15]
    2116:	b252      	sxtb	r2, r2
    2118:	2a00      	cmp	r2, #0
    211a:	dbfb      	blt.n	2114 <tc_init+0x13c>
    211c:	7173      	strb	r3, [r6, #5]
    211e:	7ae3      	ldrb	r3, [r4, #11]
    2120:	7aa2      	ldrb	r2, [r4, #10]
    2122:	2b00      	cmp	r3, #0
    2124:	d001      	beq.n	212a <tc_init+0x152>
    2126:	2310      	movs	r3, #16
    2128:	431a      	orrs	r2, r3
    212a:	7b23      	ldrb	r3, [r4, #12]
    212c:	2b00      	cmp	r3, #0
    212e:	d001      	beq.n	2134 <tc_init+0x15c>
    2130:	2320      	movs	r3, #32
    2132:	431a      	orrs	r2, r3
    2134:	6829      	ldr	r1, [r5, #0]
    2136:	7bcb      	ldrb	r3, [r1, #15]
    2138:	b25b      	sxtb	r3, r3
    213a:	2b00      	cmp	r3, #0
    213c:	dbfb      	blt.n	2136 <tc_init+0x15e>
    213e:	71b2      	strb	r2, [r6, #6]
    2140:	682b      	ldr	r3, [r5, #0]
    2142:	7bda      	ldrb	r2, [r3, #15]
    2144:	b252      	sxtb	r2, r2
    2146:	2a00      	cmp	r2, #0
    2148:	dbfb      	blt.n	2142 <tc_init+0x16a>
    214a:	792a      	ldrb	r2, [r5, #4]
    214c:	2a04      	cmp	r2, #4
    214e:	d019      	beq.n	2184 <tc_init+0x1ac>
    2150:	2a08      	cmp	r2, #8
    2152:	d03c      	beq.n	21ce <tc_init+0x1f6>
    2154:	2017      	movs	r0, #23
    2156:	2a00      	cmp	r2, #0
    2158:	d137      	bne.n	21ca <tc_init+0x1f2>
    215a:	7bda      	ldrb	r2, [r3, #15]
    215c:	b252      	sxtb	r2, r2
    215e:	2a00      	cmp	r2, #0
    2160:	dbfb      	blt.n	215a <tc_init+0x182>
    2162:	8d23      	ldrh	r3, [r4, #40]	; 0x28
    2164:	8233      	strh	r3, [r6, #16]
    2166:	682a      	ldr	r2, [r5, #0]
    2168:	7bd3      	ldrb	r3, [r2, #15]
    216a:	b25b      	sxtb	r3, r3
    216c:	2b00      	cmp	r3, #0
    216e:	dbfb      	blt.n	2168 <tc_init+0x190>
    2170:	8d63      	ldrh	r3, [r4, #42]	; 0x2a
    2172:	8333      	strh	r3, [r6, #24]
    2174:	682a      	ldr	r2, [r5, #0]
    2176:	7bd3      	ldrb	r3, [r2, #15]
    2178:	b25b      	sxtb	r3, r3
    217a:	2b00      	cmp	r3, #0
    217c:	dbfb      	blt.n	2176 <tc_init+0x19e>
    217e:	8da3      	ldrh	r3, [r4, #44]	; 0x2c
    2180:	8373      	strh	r3, [r6, #26]
    2182:	e021      	b.n	21c8 <tc_init+0x1f0>
    2184:	7bda      	ldrb	r2, [r3, #15]
    2186:	b252      	sxtb	r2, r2
    2188:	2a00      	cmp	r2, #0
    218a:	dbfb      	blt.n	2184 <tc_init+0x1ac>
    218c:	0023      	movs	r3, r4
    218e:	3328      	adds	r3, #40	; 0x28
    2190:	781b      	ldrb	r3, [r3, #0]
    2192:	7433      	strb	r3, [r6, #16]
    2194:	682a      	ldr	r2, [r5, #0]
    2196:	7bd3      	ldrb	r3, [r2, #15]
    2198:	b25b      	sxtb	r3, r3
    219a:	2b00      	cmp	r3, #0
    219c:	dbfb      	blt.n	2196 <tc_init+0x1be>
    219e:	0023      	movs	r3, r4
    21a0:	3329      	adds	r3, #41	; 0x29
    21a2:	781b      	ldrb	r3, [r3, #0]
    21a4:	7533      	strb	r3, [r6, #20]
    21a6:	682a      	ldr	r2, [r5, #0]
    21a8:	7bd3      	ldrb	r3, [r2, #15]
    21aa:	b25b      	sxtb	r3, r3
    21ac:	2b00      	cmp	r3, #0
    21ae:	dbfb      	blt.n	21a8 <tc_init+0x1d0>
    21b0:	0023      	movs	r3, r4
    21b2:	332a      	adds	r3, #42	; 0x2a
    21b4:	781b      	ldrb	r3, [r3, #0]
    21b6:	7633      	strb	r3, [r6, #24]
    21b8:	682a      	ldr	r2, [r5, #0]
    21ba:	7bd3      	ldrb	r3, [r2, #15]
    21bc:	b25b      	sxtb	r3, r3
    21be:	2b00      	cmp	r3, #0
    21c0:	dbfb      	blt.n	21ba <tc_init+0x1e2>
    21c2:	342b      	adds	r4, #43	; 0x2b
    21c4:	7823      	ldrb	r3, [r4, #0]
    21c6:	7673      	strb	r3, [r6, #25]
    21c8:	2000      	movs	r0, #0
    21ca:	b005      	add	sp, #20
    21cc:	bdf0      	pop	{r4, r5, r6, r7, pc}
    21ce:	7bda      	ldrb	r2, [r3, #15]
    21d0:	b252      	sxtb	r2, r2
    21d2:	2a00      	cmp	r2, #0
    21d4:	dbfb      	blt.n	21ce <tc_init+0x1f6>
    21d6:	6aa3      	ldr	r3, [r4, #40]	; 0x28
    21d8:	6133      	str	r3, [r6, #16]
    21da:	682a      	ldr	r2, [r5, #0]
    21dc:	7bd3      	ldrb	r3, [r2, #15]
    21de:	b25b      	sxtb	r3, r3
    21e0:	2b00      	cmp	r3, #0
    21e2:	dbfb      	blt.n	21dc <tc_init+0x204>
    21e4:	6ae3      	ldr	r3, [r4, #44]	; 0x2c
    21e6:	61b3      	str	r3, [r6, #24]
    21e8:	682a      	ldr	r2, [r5, #0]
    21ea:	7bd3      	ldrb	r3, [r2, #15]
    21ec:	b25b      	sxtb	r3, r3
    21ee:	2b00      	cmp	r3, #0
    21f0:	dbfb      	blt.n	21ea <tc_init+0x212>
    21f2:	6b23      	ldr	r3, [r4, #48]	; 0x30
    21f4:	61f3      	str	r3, [r6, #28]
    21f6:	e7e7      	b.n	21c8 <tc_init+0x1f0>
    21f8:	20000214 	.word	0x20000214
    21fc:	40000400 	.word	0x40000400

00002200 <tc_set_compare_value>:
    2200:	b510      	push	{r4, lr}
    2202:	6804      	ldr	r4, [r0, #0]
    2204:	7be3      	ldrb	r3, [r4, #15]
    2206:	b25b      	sxtb	r3, r3
    2208:	2b00      	cmp	r3, #0
    220a:	dbfb      	blt.n	2204 <tc_set_compare_value+0x4>
    220c:	7903      	ldrb	r3, [r0, #4]
    220e:	2b04      	cmp	r3, #4
    2210:	d00c      	beq.n	222c <tc_set_compare_value+0x2c>
    2212:	2b08      	cmp	r3, #8
    2214:	d012      	beq.n	223c <tc_set_compare_value+0x3c>
    2216:	2017      	movs	r0, #23
    2218:	2b00      	cmp	r3, #0
    221a:	d10e      	bne.n	223a <tc_set_compare_value+0x3a>
    221c:	2017      	movs	r0, #23
    221e:	2901      	cmp	r1, #1
    2220:	d80b      	bhi.n	223a <tc_set_compare_value+0x3a>
    2222:	310c      	adds	r1, #12
    2224:	b292      	uxth	r2, r2
    2226:	0049      	lsls	r1, r1, #1
    2228:	530a      	strh	r2, [r1, r4]
    222a:	e005      	b.n	2238 <tc_set_compare_value+0x38>
    222c:	2017      	movs	r0, #23
    222e:	2901      	cmp	r1, #1
    2230:	d803      	bhi.n	223a <tc_set_compare_value+0x3a>
    2232:	b2d2      	uxtb	r2, r2
    2234:	1861      	adds	r1, r4, r1
    2236:	760a      	strb	r2, [r1, #24]
    2238:	2000      	movs	r0, #0
    223a:	bd10      	pop	{r4, pc}
    223c:	2017      	movs	r0, #23
    223e:	2901      	cmp	r1, #1
    2240:	d8fb      	bhi.n	223a <tc_set_compare_value+0x3a>
    2242:	3106      	adds	r1, #6
    2244:	0089      	lsls	r1, r1, #2
    2246:	510a      	str	r2, [r1, r4]
    2248:	e7f6      	b.n	2238 <tc_set_compare_value+0x38>

0000224a <Dummy_Handler>:
    224a:	e7fe      	b.n	224a <Dummy_Handler>

0000224c <Reset_Handler>:
    224c:	4821      	ldr	r0, [pc, #132]	; (22d4 <Reset_Handler+0x88>)
    224e:	4922      	ldr	r1, [pc, #136]	; (22d8 <Reset_Handler+0x8c>)
    2250:	b570      	push	{r4, r5, r6, lr}
    2252:	4288      	cmp	r0, r1
    2254:	d004      	beq.n	2260 <Reset_Handler+0x14>
    2256:	2300      	movs	r3, #0
    2258:	4c20      	ldr	r4, [pc, #128]	; (22dc <Reset_Handler+0x90>)
    225a:	18ca      	adds	r2, r1, r3
    225c:	42a2      	cmp	r2, r4
    225e:	d332      	bcc.n	22c6 <Reset_Handler+0x7a>
    2260:	2100      	movs	r1, #0
    2262:	4b1f      	ldr	r3, [pc, #124]	; (22e0 <Reset_Handler+0x94>)
    2264:	4a1f      	ldr	r2, [pc, #124]	; (22e4 <Reset_Handler+0x98>)
    2266:	4293      	cmp	r3, r2
    2268:	d331      	bcc.n	22ce <Reset_Handler+0x82>
    226a:	21ff      	movs	r1, #255	; 0xff
    226c:	4b1e      	ldr	r3, [pc, #120]	; (22e8 <Reset_Handler+0x9c>)
    226e:	4a1f      	ldr	r2, [pc, #124]	; (22ec <Reset_Handler+0xa0>)
    2270:	438b      	bics	r3, r1
    2272:	6093      	str	r3, [r2, #8]
    2274:	2202      	movs	r2, #2
    2276:	250c      	movs	r5, #12
    2278:	2408      	movs	r4, #8
    227a:	2630      	movs	r6, #48	; 0x30
    227c:	4b1c      	ldr	r3, [pc, #112]	; (22f0 <Reset_Handler+0xa4>)
    227e:	481d      	ldr	r0, [pc, #116]	; (22f4 <Reset_Handler+0xa8>)
    2280:	625a      	str	r2, [r3, #36]	; 0x24
    2282:	78c3      	ldrb	r3, [r0, #3]
    2284:	39fc      	subs	r1, #252	; 0xfc
    2286:	438b      	bics	r3, r1
    2288:	4313      	orrs	r3, r2
    228a:	70c3      	strb	r3, [r0, #3]
    228c:	78c3      	ldrb	r3, [r0, #3]
    228e:	43ab      	bics	r3, r5
    2290:	4323      	orrs	r3, r4
    2292:	70c3      	strb	r3, [r0, #3]
    2294:	4b18      	ldr	r3, [pc, #96]	; (22f8 <Reset_Handler+0xac>)
    2296:	7b98      	ldrb	r0, [r3, #14]
    2298:	43b0      	bics	r0, r6
    229a:	0006      	movs	r6, r0
    229c:	2020      	movs	r0, #32
    229e:	4330      	orrs	r0, r6
    22a0:	7398      	strb	r0, [r3, #14]
    22a2:	7b98      	ldrb	r0, [r3, #14]
    22a4:	43a8      	bics	r0, r5
    22a6:	4304      	orrs	r4, r0
    22a8:	739c      	strb	r4, [r3, #14]
    22aa:	7b98      	ldrb	r0, [r3, #14]
    22ac:	4388      	bics	r0, r1
    22ae:	4302      	orrs	r2, r0
    22b0:	739a      	strb	r2, [r3, #14]
    22b2:	2380      	movs	r3, #128	; 0x80
    22b4:	4a11      	ldr	r2, [pc, #68]	; (22fc <Reset_Handler+0xb0>)
    22b6:	6851      	ldr	r1, [r2, #4]
    22b8:	430b      	orrs	r3, r1
    22ba:	6053      	str	r3, [r2, #4]
    22bc:	f000 fac2 	bl	2844 <__libc_init_array>
    22c0:	f000 fa22 	bl	2708 <main>
    22c4:	e7fe      	b.n	22c4 <Reset_Handler+0x78>
    22c6:	58c5      	ldr	r5, [r0, r3]
    22c8:	3304      	adds	r3, #4
    22ca:	6015      	str	r5, [r2, #0]
    22cc:	e7c5      	b.n	225a <Reset_Handler+0xe>
    22ce:	c302      	stmia	r3!, {r1}
    22d0:	e7c9      	b.n	2266 <Reset_Handler+0x1a>
    22d2:	46c0      	nop			; (mov r8, r8)
    22d4:	00002978 	.word	0x00002978
    22d8:	20000000 	.word	0x20000000
    22dc:	20000020 	.word	0x20000020
    22e0:	20000020 	.word	0x20000020
    22e4:	20000244 	.word	0x20000244
    22e8:	00000000 	.word	0x00000000
    22ec:	e000ed00 	.word	0xe000ed00
    22f0:	410070fc 	.word	0x410070fc
    22f4:	41005000 	.word	0x41005000
    22f8:	41004800 	.word	0x41004800
    22fc:	41004000 	.word	0x41004000

00002300 <set_color_green_indication>:
    2300:	b573      	push	{r0, r1, r4, r5, r6, lr}
    2302:	2502      	movs	r5, #2
    2304:	ae01      	add	r6, sp, #4
    2306:	002a      	movs	r2, r5
    2308:	4907      	ldr	r1, [pc, #28]	; (2328 <set_color_green_indication+0x28>)
    230a:	0030      	movs	r0, r6
    230c:	f000 fabe 	bl	288c <memcpy>
    2310:	2331      	movs	r3, #49	; 0x31
    2312:	4c06      	ldr	r4, [pc, #24]	; (232c <set_color_green_indication+0x2c>)
    2314:	6066      	str	r6, [r4, #4]
    2316:	8023      	strh	r3, [r4, #0]
    2318:	8065      	strh	r5, [r4, #2]
    231a:	0021      	movs	r1, r4
    231c:	4804      	ldr	r0, [pc, #16]	; (2330 <set_color_green_indication+0x30>)
    231e:	f7fe ff6f 	bl	1200 <i2c_master_write_packet_wait>
    2322:	2800      	cmp	r0, #0
    2324:	d1f9      	bne.n	231a <set_color_green_indication+0x1a>
    2326:	bd73      	pop	{r0, r1, r4, r5, r6, pc}
    2328:	00002930 	.word	0x00002930
    232c:	20000014 	.word	0x20000014
    2330:	2000021c 	.word	0x2000021c

00002334 <set_color_red_indication>:
    2334:	b573      	push	{r0, r1, r4, r5, r6, lr}
    2336:	2502      	movs	r5, #2
    2338:	4909      	ldr	r1, [pc, #36]	; (2360 <set_color_red_indication+0x2c>)
    233a:	ae01      	add	r6, sp, #4
    233c:	002a      	movs	r2, r5
    233e:	1949      	adds	r1, r1, r5
    2340:	0030      	movs	r0, r6
    2342:	f000 faa3 	bl	288c <memcpy>
    2346:	2331      	movs	r3, #49	; 0x31
    2348:	4c06      	ldr	r4, [pc, #24]	; (2364 <set_color_red_indication+0x30>)
    234a:	6066      	str	r6, [r4, #4]
    234c:	8023      	strh	r3, [r4, #0]
    234e:	8065      	strh	r5, [r4, #2]
    2350:	0021      	movs	r1, r4
    2352:	4805      	ldr	r0, [pc, #20]	; (2368 <set_color_red_indication+0x34>)
    2354:	f7fe ff54 	bl	1200 <i2c_master_write_packet_wait>
    2358:	2800      	cmp	r0, #0
    235a:	d1f9      	bne.n	2350 <set_color_red_indication+0x1c>
    235c:	bd73      	pop	{r0, r1, r4, r5, r6, pc}
    235e:	46c0      	nop			; (mov r8, r8)
    2360:	00002930 	.word	0x00002930
    2364:	20000014 	.word	0x20000014
    2368:	2000021c 	.word	0x2000021c

0000236c <set_color_yellow_indication>:
    236c:	b573      	push	{r0, r1, r4, r5, r6, lr}
    236e:	2502      	movs	r5, #2
    2370:	4909      	ldr	r1, [pc, #36]	; (2398 <set_color_yellow_indication+0x2c>)
    2372:	ae01      	add	r6, sp, #4
    2374:	002a      	movs	r2, r5
    2376:	3106      	adds	r1, #6
    2378:	0030      	movs	r0, r6
    237a:	f000 fa87 	bl	288c <memcpy>
    237e:	2331      	movs	r3, #49	; 0x31
    2380:	4c06      	ldr	r4, [pc, #24]	; (239c <set_color_yellow_indication+0x30>)
    2382:	6066      	str	r6, [r4, #4]
    2384:	8023      	strh	r3, [r4, #0]
    2386:	8065      	strh	r5, [r4, #2]
    2388:	0021      	movs	r1, r4
    238a:	4805      	ldr	r0, [pc, #20]	; (23a0 <set_color_yellow_indication+0x34>)
    238c:	f7fe ff38 	bl	1200 <i2c_master_write_packet_wait>
    2390:	2800      	cmp	r0, #0
    2392:	d1f9      	bne.n	2388 <set_color_yellow_indication+0x1c>
    2394:	bd73      	pop	{r0, r1, r4, r5, r6, pc}
    2396:	46c0      	nop			; (mov r8, r8)
    2398:	00002930 	.word	0x00002930
    239c:	20000014 	.word	0x20000014
    23a0:	2000021c 	.word	0x2000021c

000023a4 <set_battery_charge_routine>:
    23a4:	b5f0      	push	{r4, r5, r6, r7, lr}
    23a6:	4c21      	ldr	r4, [pc, #132]	; (242c <set_battery_charge_routine+0x88>)
    23a8:	2502      	movs	r5, #2
    23aa:	0021      	movs	r1, r4
    23ac:	b085      	sub	sp, #20
    23ae:	310c      	adds	r1, #12
    23b0:	002a      	movs	r2, r5
    23b2:	4668      	mov	r0, sp
    23b4:	f000 fa6a 	bl	288c <memcpy>
    23b8:	0021      	movs	r1, r4
    23ba:	af01      	add	r7, sp, #4
    23bc:	310e      	adds	r1, #14
    23be:	002a      	movs	r2, r5
    23c0:	0038      	movs	r0, r7
    23c2:	f000 fa63 	bl	288c <memcpy>
    23c6:	0021      	movs	r1, r4
    23c8:	ae02      	add	r6, sp, #8
    23ca:	3110      	adds	r1, #16
    23cc:	002a      	movs	r2, r5
    23ce:	0030      	movs	r0, r6
    23d0:	f000 fa5c 	bl	288c <memcpy>
    23d4:	0021      	movs	r1, r4
    23d6:	002a      	movs	r2, r5
    23d8:	3112      	adds	r1, #18
    23da:	a803      	add	r0, sp, #12
    23dc:	f000 fa56 	bl	288c <memcpy>
    23e0:	2331      	movs	r3, #49	; 0x31
    23e2:	4c13      	ldr	r4, [pc, #76]	; (2430 <set_battery_charge_routine+0x8c>)
    23e4:	8023      	strh	r3, [r4, #0]
    23e6:	466b      	mov	r3, sp
    23e8:	8065      	strh	r5, [r4, #2]
    23ea:	6063      	str	r3, [r4, #4]
    23ec:	4d11      	ldr	r5, [pc, #68]	; (2434 <set_battery_charge_routine+0x90>)
    23ee:	0021      	movs	r1, r4
    23f0:	0028      	movs	r0, r5
    23f2:	f7fe ff05 	bl	1200 <i2c_master_write_packet_wait>
    23f6:	2800      	cmp	r0, #0
    23f8:	d1f8      	bne.n	23ec <set_battery_charge_routine+0x48>
    23fa:	6067      	str	r7, [r4, #4]
    23fc:	0021      	movs	r1, r4
    23fe:	0028      	movs	r0, r5
    2400:	f7fe fefe 	bl	1200 <i2c_master_write_packet_wait>
    2404:	2800      	cmp	r0, #0
    2406:	d1f9      	bne.n	23fc <set_battery_charge_routine+0x58>
    2408:	6066      	str	r6, [r4, #4]
    240a:	0021      	movs	r1, r4
    240c:	0028      	movs	r0, r5
    240e:	f7fe fef7 	bl	1200 <i2c_master_write_packet_wait>
    2412:	2800      	cmp	r0, #0
    2414:	d1f9      	bne.n	240a <set_battery_charge_routine+0x66>
    2416:	ab03      	add	r3, sp, #12
    2418:	6063      	str	r3, [r4, #4]
    241a:	0021      	movs	r1, r4
    241c:	0028      	movs	r0, r5
    241e:	f7fe feef 	bl	1200 <i2c_master_write_packet_wait>
    2422:	2800      	cmp	r0, #0
    2424:	d1f9      	bne.n	241a <set_battery_charge_routine+0x76>
    2426:	b005      	add	sp, #20
    2428:	bdf0      	pop	{r4, r5, r6, r7, pc}
    242a:	46c0      	nop			; (mov r8, r8)
    242c:	00002930 	.word	0x00002930
    2430:	20000014 	.word	0x20000014
    2434:	2000021c 	.word	0x2000021c

00002438 <set_battery_low_routine>:
    2438:	b5f0      	push	{r4, r5, r6, r7, lr}
    243a:	4c21      	ldr	r4, [pc, #132]	; (24c0 <set_battery_low_routine+0x88>)
    243c:	2502      	movs	r5, #2
    243e:	0021      	movs	r1, r4
    2440:	b085      	sub	sp, #20
    2442:	3114      	adds	r1, #20
    2444:	002a      	movs	r2, r5
    2446:	4668      	mov	r0, sp
    2448:	f000 fa20 	bl	288c <memcpy>
    244c:	0021      	movs	r1, r4
    244e:	af01      	add	r7, sp, #4
    2450:	3116      	adds	r1, #22
    2452:	002a      	movs	r2, r5
    2454:	0038      	movs	r0, r7
    2456:	f000 fa19 	bl	288c <memcpy>
    245a:	0021      	movs	r1, r4
    245c:	002a      	movs	r2, r5
    245e:	3118      	adds	r1, #24
    2460:	a802      	add	r0, sp, #8
    2462:	f000 fa13 	bl	288c <memcpy>
    2466:	0021      	movs	r1, r4
    2468:	ae03      	add	r6, sp, #12
    246a:	311a      	adds	r1, #26
    246c:	002a      	movs	r2, r5
    246e:	0030      	movs	r0, r6
    2470:	f000 fa0c 	bl	288c <memcpy>
    2474:	2331      	movs	r3, #49	; 0x31
    2476:	4c13      	ldr	r4, [pc, #76]	; (24c4 <set_battery_low_routine+0x8c>)
    2478:	8023      	strh	r3, [r4, #0]
    247a:	466b      	mov	r3, sp
    247c:	8065      	strh	r5, [r4, #2]
    247e:	6063      	str	r3, [r4, #4]
    2480:	4d11      	ldr	r5, [pc, #68]	; (24c8 <set_battery_low_routine+0x90>)
    2482:	0021      	movs	r1, r4
    2484:	0028      	movs	r0, r5
    2486:	f7fe febb 	bl	1200 <i2c_master_write_packet_wait>
    248a:	2800      	cmp	r0, #0
    248c:	d1f8      	bne.n	2480 <set_battery_low_routine+0x48>
    248e:	6067      	str	r7, [r4, #4]
    2490:	0021      	movs	r1, r4
    2492:	0028      	movs	r0, r5
    2494:	f7fe feb4 	bl	1200 <i2c_master_write_packet_wait>
    2498:	2800      	cmp	r0, #0
    249a:	d1f9      	bne.n	2490 <set_battery_low_routine+0x58>
    249c:	6066      	str	r6, [r4, #4]
    249e:	0021      	movs	r1, r4
    24a0:	0028      	movs	r0, r5
    24a2:	f7fe fead 	bl	1200 <i2c_master_write_packet_wait>
    24a6:	2800      	cmp	r0, #0
    24a8:	d1f9      	bne.n	249e <set_battery_low_routine+0x66>
    24aa:	ab02      	add	r3, sp, #8
    24ac:	6063      	str	r3, [r4, #4]
    24ae:	0021      	movs	r1, r4
    24b0:	0028      	movs	r0, r5
    24b2:	f7fe fea5 	bl	1200 <i2c_master_write_packet_wait>
    24b6:	2800      	cmp	r0, #0
    24b8:	d1f9      	bne.n	24ae <set_battery_low_routine+0x76>
    24ba:	b005      	add	sp, #20
    24bc:	bdf0      	pop	{r4, r5, r6, r7, pc}
    24be:	46c0      	nop			; (mov r8, r8)
    24c0:	00002930 	.word	0x00002930
    24c4:	20000014 	.word	0x20000014
    24c8:	2000021c 	.word	0x2000021c

000024cc <set_motor_speed_1_indication>:
    24cc:	b573      	push	{r0, r1, r4, r5, r6, lr}
    24ce:	4c12      	ldr	r4, [pc, #72]	; (2518 <set_motor_speed_1_indication+0x4c>)
    24d0:	2502      	movs	r5, #2
    24d2:	0021      	movs	r1, r4
    24d4:	002a      	movs	r2, r5
    24d6:	311c      	adds	r1, #28
    24d8:	4668      	mov	r0, sp
    24da:	f000 f9d7 	bl	288c <memcpy>
    24de:	0021      	movs	r1, r4
    24e0:	ae01      	add	r6, sp, #4
    24e2:	311e      	adds	r1, #30
    24e4:	002a      	movs	r2, r5
    24e6:	0030      	movs	r0, r6
    24e8:	f000 f9d0 	bl	288c <memcpy>
    24ec:	2331      	movs	r3, #49	; 0x31
    24ee:	4c0b      	ldr	r4, [pc, #44]	; (251c <set_motor_speed_1_indication+0x50>)
    24f0:	8023      	strh	r3, [r4, #0]
    24f2:	466b      	mov	r3, sp
    24f4:	8065      	strh	r5, [r4, #2]
    24f6:	6063      	str	r3, [r4, #4]
    24f8:	4d09      	ldr	r5, [pc, #36]	; (2520 <set_motor_speed_1_indication+0x54>)
    24fa:	0021      	movs	r1, r4
    24fc:	0028      	movs	r0, r5
    24fe:	f7fe fe7f 	bl	1200 <i2c_master_write_packet_wait>
    2502:	2800      	cmp	r0, #0
    2504:	d1f8      	bne.n	24f8 <set_motor_speed_1_indication+0x2c>
    2506:	6066      	str	r6, [r4, #4]
    2508:	0021      	movs	r1, r4
    250a:	0028      	movs	r0, r5
    250c:	f7fe fe78 	bl	1200 <i2c_master_write_packet_wait>
    2510:	2800      	cmp	r0, #0
    2512:	d1f9      	bne.n	2508 <set_motor_speed_1_indication+0x3c>
    2514:	bd73      	pop	{r0, r1, r4, r5, r6, pc}
    2516:	46c0      	nop			; (mov r8, r8)
    2518:	00002930 	.word	0x00002930
    251c:	20000014 	.word	0x20000014
    2520:	2000021c 	.word	0x2000021c

00002524 <set_motor_speed_2_indication>:
    2524:	b573      	push	{r0, r1, r4, r5, r6, lr}
    2526:	4c12      	ldr	r4, [pc, #72]	; (2570 <set_motor_speed_2_indication+0x4c>)
    2528:	2502      	movs	r5, #2
    252a:	0021      	movs	r1, r4
    252c:	002a      	movs	r2, r5
    252e:	311c      	adds	r1, #28
    2530:	4668      	mov	r0, sp
    2532:	f000 f9ab 	bl	288c <memcpy>
    2536:	0021      	movs	r1, r4
    2538:	ae01      	add	r6, sp, #4
    253a:	3120      	adds	r1, #32
    253c:	002a      	movs	r2, r5
    253e:	0030      	movs	r0, r6
    2540:	f000 f9a4 	bl	288c <memcpy>
    2544:	2331      	movs	r3, #49	; 0x31
    2546:	4c0b      	ldr	r4, [pc, #44]	; (2574 <set_motor_speed_2_indication+0x50>)
    2548:	8023      	strh	r3, [r4, #0]
    254a:	466b      	mov	r3, sp
    254c:	8065      	strh	r5, [r4, #2]
    254e:	6063      	str	r3, [r4, #4]
    2550:	4d09      	ldr	r5, [pc, #36]	; (2578 <set_motor_speed_2_indication+0x54>)
    2552:	0021      	movs	r1, r4
    2554:	0028      	movs	r0, r5
    2556:	f7fe fe53 	bl	1200 <i2c_master_write_packet_wait>
    255a:	2800      	cmp	r0, #0
    255c:	d1f8      	bne.n	2550 <set_motor_speed_2_indication+0x2c>
    255e:	6066      	str	r6, [r4, #4]
    2560:	0021      	movs	r1, r4
    2562:	0028      	movs	r0, r5
    2564:	f7fe fe4c 	bl	1200 <i2c_master_write_packet_wait>
    2568:	2800      	cmp	r0, #0
    256a:	d1f9      	bne.n	2560 <set_motor_speed_2_indication+0x3c>
    256c:	bd73      	pop	{r0, r1, r4, r5, r6, pc}
    256e:	46c0      	nop			; (mov r8, r8)
    2570:	00002930 	.word	0x00002930
    2574:	20000014 	.word	0x20000014
    2578:	2000021c 	.word	0x2000021c

0000257c <set_motor_speed_3_indication>:
    257c:	b573      	push	{r0, r1, r4, r5, r6, lr}
    257e:	4c12      	ldr	r4, [pc, #72]	; (25c8 <set_motor_speed_3_indication+0x4c>)
    2580:	2502      	movs	r5, #2
    2582:	0021      	movs	r1, r4
    2584:	002a      	movs	r2, r5
    2586:	311c      	adds	r1, #28
    2588:	4668      	mov	r0, sp
    258a:	f000 f97f 	bl	288c <memcpy>
    258e:	0021      	movs	r1, r4
    2590:	ae01      	add	r6, sp, #4
    2592:	3122      	adds	r1, #34	; 0x22
    2594:	002a      	movs	r2, r5
    2596:	0030      	movs	r0, r6
    2598:	f000 f978 	bl	288c <memcpy>
    259c:	2331      	movs	r3, #49	; 0x31
    259e:	4c0b      	ldr	r4, [pc, #44]	; (25cc <set_motor_speed_3_indication+0x50>)
    25a0:	8023      	strh	r3, [r4, #0]
    25a2:	466b      	mov	r3, sp
    25a4:	8065      	strh	r5, [r4, #2]
    25a6:	6063      	str	r3, [r4, #4]
    25a8:	4d09      	ldr	r5, [pc, #36]	; (25d0 <set_motor_speed_3_indication+0x54>)
    25aa:	0021      	movs	r1, r4
    25ac:	0028      	movs	r0, r5
    25ae:	f7fe fe27 	bl	1200 <i2c_master_write_packet_wait>
    25b2:	2800      	cmp	r0, #0
    25b4:	d1f8      	bne.n	25a8 <set_motor_speed_3_indication+0x2c>
    25b6:	6066      	str	r6, [r4, #4]
    25b8:	0021      	movs	r1, r4
    25ba:	0028      	movs	r0, r5
    25bc:	f7fe fe20 	bl	1200 <i2c_master_write_packet_wait>
    25c0:	2800      	cmp	r0, #0
    25c2:	d1f9      	bne.n	25b8 <set_motor_speed_3_indication+0x3c>
    25c4:	bd73      	pop	{r0, r1, r4, r5, r6, pc}
    25c6:	46c0      	nop			; (mov r8, r8)
    25c8:	00002930 	.word	0x00002930
    25cc:	20000014 	.word	0x20000014
    25d0:	2000021c 	.word	0x2000021c

000025d4 <set_motor_pulsating_indication>:
    25d4:	b5f0      	push	{r4, r5, r6, r7, lr}
    25d6:	4c21      	ldr	r4, [pc, #132]	; (265c <set_motor_pulsating_indication+0x88>)
    25d8:	2502      	movs	r5, #2
    25da:	0021      	movs	r1, r4
    25dc:	b085      	sub	sp, #20
    25de:	311c      	adds	r1, #28
    25e0:	002a      	movs	r2, r5
    25e2:	4668      	mov	r0, sp
    25e4:	f000 f952 	bl	288c <memcpy>
    25e8:	0021      	movs	r1, r4
    25ea:	af01      	add	r7, sp, #4
    25ec:	3122      	adds	r1, #34	; 0x22
    25ee:	002a      	movs	r2, r5
    25f0:	0038      	movs	r0, r7
    25f2:	f000 f94b 	bl	288c <memcpy>
    25f6:	0021      	movs	r1, r4
    25f8:	ae02      	add	r6, sp, #8
    25fa:	3124      	adds	r1, #36	; 0x24
    25fc:	002a      	movs	r2, r5
    25fe:	0030      	movs	r0, r6
    2600:	f000 f944 	bl	288c <memcpy>
    2604:	0021      	movs	r1, r4
    2606:	002a      	movs	r2, r5
    2608:	3116      	adds	r1, #22
    260a:	a803      	add	r0, sp, #12
    260c:	f000 f93e 	bl	288c <memcpy>
    2610:	2331      	movs	r3, #49	; 0x31
    2612:	4c13      	ldr	r4, [pc, #76]	; (2660 <set_motor_pulsating_indication+0x8c>)
    2614:	8023      	strh	r3, [r4, #0]
    2616:	466b      	mov	r3, sp
    2618:	8065      	strh	r5, [r4, #2]
    261a:	6063      	str	r3, [r4, #4]
    261c:	4d11      	ldr	r5, [pc, #68]	; (2664 <set_motor_pulsating_indication+0x90>)
    261e:	0021      	movs	r1, r4
    2620:	0028      	movs	r0, r5
    2622:	f7fe fded 	bl	1200 <i2c_master_write_packet_wait>
    2626:	2800      	cmp	r0, #0
    2628:	d1f8      	bne.n	261c <set_motor_pulsating_indication+0x48>
    262a:	6067      	str	r7, [r4, #4]
    262c:	0021      	movs	r1, r4
    262e:	0028      	movs	r0, r5
    2630:	f7fe fde6 	bl	1200 <i2c_master_write_packet_wait>
    2634:	2800      	cmp	r0, #0
    2636:	d1f9      	bne.n	262c <set_motor_pulsating_indication+0x58>
    2638:	6066      	str	r6, [r4, #4]
    263a:	0021      	movs	r1, r4
    263c:	0028      	movs	r0, r5
    263e:	f7fe fddf 	bl	1200 <i2c_master_write_packet_wait>
    2642:	2800      	cmp	r0, #0
    2644:	d1f9      	bne.n	263a <set_motor_pulsating_indication+0x66>
    2646:	ab03      	add	r3, sp, #12
    2648:	6063      	str	r3, [r4, #4]
    264a:	0021      	movs	r1, r4
    264c:	0028      	movs	r0, r5
    264e:	f7fe fdd7 	bl	1200 <i2c_master_write_packet_wait>
    2652:	2800      	cmp	r0, #0
    2654:	d1f9      	bne.n	264a <set_motor_pulsating_indication+0x76>
    2656:	b005      	add	sp, #20
    2658:	bdf0      	pop	{r4, r5, r6, r7, pc}
    265a:	46c0      	nop			; (mov r8, r8)
    265c:	00002930 	.word	0x00002930
    2660:	20000014 	.word	0x20000014
    2664:	2000021c 	.word	0x2000021c

00002668 <i2c_master_setup>:
    2668:	2180      	movs	r1, #128	; 0x80
    266a:	2364      	movs	r3, #100	; 0x64
    266c:	b570      	push	{r4, r5, r6, lr}
    266e:	b08e      	sub	sp, #56	; 0x38
    2670:	aa01      	add	r2, sp, #4
    2672:	0389      	lsls	r1, r1, #14
    2674:	6111      	str	r1, [r2, #16]
    2676:	2101      	movs	r1, #1
    2678:	9301      	str	r3, [sp, #4]
    267a:	4b1e      	ldr	r3, [pc, #120]	; (26f4 <i2c_master_setup+0x8c>)
    267c:	4249      	negs	r1, r1
    267e:	6053      	str	r3, [r2, #4]
    2680:	2300      	movs	r3, #0
    2682:	8291      	strh	r1, [r2, #20]
    2684:	310a      	adds	r1, #10
    2686:	4469      	add	r1, sp
    2688:	77cb      	strb	r3, [r1, #31]
    268a:	a90c      	add	r1, sp, #48	; 0x30
    268c:	700b      	strb	r3, [r1, #0]
    268e:	2131      	movs	r1, #49	; 0x31
    2690:	4469      	add	r1, sp
    2692:	700b      	strb	r3, [r1, #0]
    2694:	2132      	movs	r1, #50	; 0x32
    2696:	4469      	add	r1, sp
    2698:	6093      	str	r3, [r2, #8]
    269a:	7313      	strb	r3, [r2, #12]
    269c:	7613      	strb	r3, [r2, #24]
    269e:	61d3      	str	r3, [r2, #28]
    26a0:	6213      	str	r3, [r2, #32]
    26a2:	6293      	str	r3, [r2, #40]	; 0x28
    26a4:	700b      	strb	r3, [r1, #0]
    26a6:	4e14      	ldr	r6, [pc, #80]	; (26f8 <i2c_master_setup+0x90>)
    26a8:	33d7      	adds	r3, #215	; 0xd7
    26aa:	8613      	strh	r3, [r2, #48]	; 0x30
    26ac:	4b13      	ldr	r3, [pc, #76]	; (26fc <i2c_master_setup+0x94>)
    26ae:	4914      	ldr	r1, [pc, #80]	; (2700 <i2c_master_setup+0x98>)
    26b0:	0030      	movs	r0, r6
    26b2:	82d3      	strh	r3, [r2, #22]
    26b4:	f7fe fc42 	bl	f3c <i2c_master_init>
    26b8:	2207      	movs	r2, #7
    26ba:	6835      	ldr	r5, [r6, #0]
    26bc:	69ec      	ldr	r4, [r5, #28]
    26be:	4014      	ands	r4, r2
    26c0:	d1fc      	bne.n	26bc <i2c_master_setup+0x54>
    26c2:	2302      	movs	r3, #2
    26c4:	682a      	ldr	r2, [r5, #0]
    26c6:	4313      	orrs	r3, r2
    26c8:	602b      	str	r3, [r5, #0]
    26ca:	6830      	ldr	r0, [r6, #0]
    26cc:	f7fe ff70 	bl	15b0 <_sercom_get_interrupt_vector>
    26d0:	231f      	movs	r3, #31
    26d2:	4018      	ands	r0, r3
    26d4:	3b1e      	subs	r3, #30
    26d6:	4083      	lsls	r3, r0
    26d8:	4a0a      	ldr	r2, [pc, #40]	; (2704 <i2c_master_setup+0x9c>)
    26da:	6013      	str	r3, [r2, #0]
    26dc:	2210      	movs	r2, #16
    26de:	88f0      	ldrh	r0, [r6, #6]
    26e0:	8b69      	ldrh	r1, [r5, #26]
    26e2:	4211      	tst	r1, r2
    26e4:	d103      	bne.n	26ee <i2c_master_setup+0x86>
    26e6:	3401      	adds	r4, #1
    26e8:	4284      	cmp	r4, r0
    26ea:	d3f9      	bcc.n	26e0 <i2c_master_setup+0x78>
    26ec:	836a      	strh	r2, [r5, #26]
    26ee:	b00e      	add	sp, #56	; 0x38
    26f0:	bd70      	pop	{r4, r5, r6, pc}
    26f2:	46c0      	nop			; (mov r8, r8)
    26f4:	00000d48 	.word	0x00000d48
    26f8:	2000021c 	.word	0x2000021c
    26fc:	00002710 	.word	0x00002710
    2700:	42001000 	.word	0x42001000
    2704:	e000e100 	.word	0xe000e100

00002708 <main>:
    2708:	b510      	push	{r4, lr}
    270a:	f7fe fb63 	bl	dd4 <startup_sys_configs>
    270e:	f7fe fbc9 	bl	ea4 <system_state>
    2712:	f7fe fa37 	bl	b84 <system_logic>
    2716:	e7fa      	b.n	270e <main+0x6>

00002718 <__gnu_thumb1_case_uqi>:
    2718:	b402      	push	{r1}
    271a:	4671      	mov	r1, lr
    271c:	0849      	lsrs	r1, r1, #1
    271e:	0049      	lsls	r1, r1, #1
    2720:	5c09      	ldrb	r1, [r1, r0]
    2722:	0049      	lsls	r1, r1, #1
    2724:	448e      	add	lr, r1
    2726:	bc02      	pop	{r1}
    2728:	4770      	bx	lr
    272a:	46c0      	nop			; (mov r8, r8)

0000272c <__udivsi3>:
    272c:	2200      	movs	r2, #0
    272e:	0843      	lsrs	r3, r0, #1
    2730:	428b      	cmp	r3, r1
    2732:	d374      	bcc.n	281e <__udivsi3+0xf2>
    2734:	0903      	lsrs	r3, r0, #4
    2736:	428b      	cmp	r3, r1
    2738:	d35f      	bcc.n	27fa <__udivsi3+0xce>
    273a:	0a03      	lsrs	r3, r0, #8
    273c:	428b      	cmp	r3, r1
    273e:	d344      	bcc.n	27ca <__udivsi3+0x9e>
    2740:	0b03      	lsrs	r3, r0, #12
    2742:	428b      	cmp	r3, r1
    2744:	d328      	bcc.n	2798 <__udivsi3+0x6c>
    2746:	0c03      	lsrs	r3, r0, #16
    2748:	428b      	cmp	r3, r1
    274a:	d30d      	bcc.n	2768 <__udivsi3+0x3c>
    274c:	22ff      	movs	r2, #255	; 0xff
    274e:	0209      	lsls	r1, r1, #8
    2750:	ba12      	rev	r2, r2
    2752:	0c03      	lsrs	r3, r0, #16
    2754:	428b      	cmp	r3, r1
    2756:	d302      	bcc.n	275e <__udivsi3+0x32>
    2758:	1212      	asrs	r2, r2, #8
    275a:	0209      	lsls	r1, r1, #8
    275c:	d065      	beq.n	282a <__udivsi3+0xfe>
    275e:	0b03      	lsrs	r3, r0, #12
    2760:	428b      	cmp	r3, r1
    2762:	d319      	bcc.n	2798 <__udivsi3+0x6c>
    2764:	e000      	b.n	2768 <__udivsi3+0x3c>
    2766:	0a09      	lsrs	r1, r1, #8
    2768:	0bc3      	lsrs	r3, r0, #15
    276a:	428b      	cmp	r3, r1
    276c:	d301      	bcc.n	2772 <__udivsi3+0x46>
    276e:	03cb      	lsls	r3, r1, #15
    2770:	1ac0      	subs	r0, r0, r3
    2772:	4152      	adcs	r2, r2
    2774:	0b83      	lsrs	r3, r0, #14
    2776:	428b      	cmp	r3, r1
    2778:	d301      	bcc.n	277e <__udivsi3+0x52>
    277a:	038b      	lsls	r3, r1, #14
    277c:	1ac0      	subs	r0, r0, r3
    277e:	4152      	adcs	r2, r2
    2780:	0b43      	lsrs	r3, r0, #13
    2782:	428b      	cmp	r3, r1
    2784:	d301      	bcc.n	278a <__udivsi3+0x5e>
    2786:	034b      	lsls	r3, r1, #13
    2788:	1ac0      	subs	r0, r0, r3
    278a:	4152      	adcs	r2, r2
    278c:	0b03      	lsrs	r3, r0, #12
    278e:	428b      	cmp	r3, r1
    2790:	d301      	bcc.n	2796 <__udivsi3+0x6a>
    2792:	030b      	lsls	r3, r1, #12
    2794:	1ac0      	subs	r0, r0, r3
    2796:	4152      	adcs	r2, r2
    2798:	0ac3      	lsrs	r3, r0, #11
    279a:	428b      	cmp	r3, r1
    279c:	d301      	bcc.n	27a2 <__udivsi3+0x76>
    279e:	02cb      	lsls	r3, r1, #11
    27a0:	1ac0      	subs	r0, r0, r3
    27a2:	4152      	adcs	r2, r2
    27a4:	0a83      	lsrs	r3, r0, #10
    27a6:	428b      	cmp	r3, r1
    27a8:	d301      	bcc.n	27ae <__udivsi3+0x82>
    27aa:	028b      	lsls	r3, r1, #10
    27ac:	1ac0      	subs	r0, r0, r3
    27ae:	4152      	adcs	r2, r2
    27b0:	0a43      	lsrs	r3, r0, #9
    27b2:	428b      	cmp	r3, r1
    27b4:	d301      	bcc.n	27ba <__udivsi3+0x8e>
    27b6:	024b      	lsls	r3, r1, #9
    27b8:	1ac0      	subs	r0, r0, r3
    27ba:	4152      	adcs	r2, r2
    27bc:	0a03      	lsrs	r3, r0, #8
    27be:	428b      	cmp	r3, r1
    27c0:	d301      	bcc.n	27c6 <__udivsi3+0x9a>
    27c2:	020b      	lsls	r3, r1, #8
    27c4:	1ac0      	subs	r0, r0, r3
    27c6:	4152      	adcs	r2, r2
    27c8:	d2cd      	bcs.n	2766 <__udivsi3+0x3a>
    27ca:	09c3      	lsrs	r3, r0, #7
    27cc:	428b      	cmp	r3, r1
    27ce:	d301      	bcc.n	27d4 <__udivsi3+0xa8>
    27d0:	01cb      	lsls	r3, r1, #7
    27d2:	1ac0      	subs	r0, r0, r3
    27d4:	4152      	adcs	r2, r2
    27d6:	0983      	lsrs	r3, r0, #6
    27d8:	428b      	cmp	r3, r1
    27da:	d301      	bcc.n	27e0 <__udivsi3+0xb4>
    27dc:	018b      	lsls	r3, r1, #6
    27de:	1ac0      	subs	r0, r0, r3
    27e0:	4152      	adcs	r2, r2
    27e2:	0943      	lsrs	r3, r0, #5
    27e4:	428b      	cmp	r3, r1
    27e6:	d301      	bcc.n	27ec <__udivsi3+0xc0>
    27e8:	014b      	lsls	r3, r1, #5
    27ea:	1ac0      	subs	r0, r0, r3
    27ec:	4152      	adcs	r2, r2
    27ee:	0903      	lsrs	r3, r0, #4
    27f0:	428b      	cmp	r3, r1
    27f2:	d301      	bcc.n	27f8 <__udivsi3+0xcc>
    27f4:	010b      	lsls	r3, r1, #4
    27f6:	1ac0      	subs	r0, r0, r3
    27f8:	4152      	adcs	r2, r2
    27fa:	08c3      	lsrs	r3, r0, #3
    27fc:	428b      	cmp	r3, r1
    27fe:	d301      	bcc.n	2804 <__udivsi3+0xd8>
    2800:	00cb      	lsls	r3, r1, #3
    2802:	1ac0      	subs	r0, r0, r3
    2804:	4152      	adcs	r2, r2
    2806:	0883      	lsrs	r3, r0, #2
    2808:	428b      	cmp	r3, r1
    280a:	d301      	bcc.n	2810 <__udivsi3+0xe4>
    280c:	008b      	lsls	r3, r1, #2
    280e:	1ac0      	subs	r0, r0, r3
    2810:	4152      	adcs	r2, r2
    2812:	0843      	lsrs	r3, r0, #1
    2814:	428b      	cmp	r3, r1
    2816:	d301      	bcc.n	281c <__udivsi3+0xf0>
    2818:	004b      	lsls	r3, r1, #1
    281a:	1ac0      	subs	r0, r0, r3
    281c:	4152      	adcs	r2, r2
    281e:	1a41      	subs	r1, r0, r1
    2820:	d200      	bcs.n	2824 <__udivsi3+0xf8>
    2822:	4601      	mov	r1, r0
    2824:	4152      	adcs	r2, r2
    2826:	4610      	mov	r0, r2
    2828:	4770      	bx	lr
    282a:	e7ff      	b.n	282c <__udivsi3+0x100>
    282c:	b501      	push	{r0, lr}
    282e:	2000      	movs	r0, #0
    2830:	f000 f806 	bl	2840 <__aeabi_idiv0>
    2834:	bd02      	pop	{r1, pc}
    2836:	46c0      	nop			; (mov r8, r8)

00002838 <__aeabi_uidivmod>:
    2838:	2900      	cmp	r1, #0
    283a:	d0f7      	beq.n	282c <__udivsi3+0x100>
    283c:	e776      	b.n	272c <__udivsi3>
    283e:	4770      	bx	lr

00002840 <__aeabi_idiv0>:
    2840:	4770      	bx	lr
    2842:	46c0      	nop			; (mov r8, r8)

00002844 <__libc_init_array>:
    2844:	b570      	push	{r4, r5, r6, lr}
    2846:	2600      	movs	r6, #0
    2848:	4d0c      	ldr	r5, [pc, #48]	; (287c <__libc_init_array+0x38>)
    284a:	4c0d      	ldr	r4, [pc, #52]	; (2880 <__libc_init_array+0x3c>)
    284c:	1b64      	subs	r4, r4, r5
    284e:	10a4      	asrs	r4, r4, #2
    2850:	42a6      	cmp	r6, r4
    2852:	d109      	bne.n	2868 <__libc_init_array+0x24>
    2854:	2600      	movs	r6, #0
    2856:	f000 f87f 	bl	2958 <_init>
    285a:	4d0a      	ldr	r5, [pc, #40]	; (2884 <__libc_init_array+0x40>)
    285c:	4c0a      	ldr	r4, [pc, #40]	; (2888 <__libc_init_array+0x44>)
    285e:	1b64      	subs	r4, r4, r5
    2860:	10a4      	asrs	r4, r4, #2
    2862:	42a6      	cmp	r6, r4
    2864:	d105      	bne.n	2872 <__libc_init_array+0x2e>
    2866:	bd70      	pop	{r4, r5, r6, pc}
    2868:	00b3      	lsls	r3, r6, #2
    286a:	58eb      	ldr	r3, [r5, r3]
    286c:	4798      	blx	r3
    286e:	3601      	adds	r6, #1
    2870:	e7ee      	b.n	2850 <__libc_init_array+0xc>
    2872:	00b3      	lsls	r3, r6, #2
    2874:	58eb      	ldr	r3, [r5, r3]
    2876:	4798      	blx	r3
    2878:	3601      	adds	r6, #1
    287a:	e7f2      	b.n	2862 <__libc_init_array+0x1e>
    287c:	00002964 	.word	0x00002964
    2880:	00002964 	.word	0x00002964
    2884:	00002964 	.word	0x00002964
    2888:	00002968 	.word	0x00002968

0000288c <memcpy>:
    288c:	2300      	movs	r3, #0
    288e:	b510      	push	{r4, lr}
    2890:	429a      	cmp	r2, r3
    2892:	d100      	bne.n	2896 <memcpy+0xa>
    2894:	bd10      	pop	{r4, pc}
    2896:	5ccc      	ldrb	r4, [r1, r3]
    2898:	54c4      	strb	r4, [r0, r3]
    289a:	3301      	adds	r3, #1
    289c:	e7f8      	b.n	2890 <memcpy+0x4>
    289e:	0000      	movs	r0, r0
    28a0:	00000002 	.word	0x00000002
    28a4:	00000003 	.word	0x00000003
    28a8:	00000004 	.word	0x00000004
    28ac:	00000005 	.word	0x00000005
    28b0:	00000006 	.word	0x00000006
    28b4:	00000007 	.word	0x00000007
    28b8:	0000000e 	.word	0x0000000e
    28bc:	0000000f 	.word	0x0000000f
    28c0:	0000000a 	.word	0x0000000a
    28c4:	0000000b 	.word	0x0000000b
    28c8:	0000ffff 	.word	0x0000ffff
    28cc:	0000ffff 	.word	0x0000ffff
    28d0:	0000ffff 	.word	0x0000ffff
    28d4:	0000ffff 	.word	0x0000ffff
    28d8:	0000ffff 	.word	0x0000ffff
    28dc:	0000ffff 	.word	0x0000ffff
    28e0:	0000ffff 	.word	0x0000ffff
    28e4:	0000ffff 	.word	0x0000ffff
    28e8:	0000ffff 	.word	0x0000ffff
    28ec:	0000ffff 	.word	0x0000ffff

000028f0 <tc_interrupt_vectors.12581>:
    28f0:	00000e0d 42000800 42000c00 42001000     .......B...B...B

00002900 <_tcc_intflag>:
    2900:	00000001 00000002 00000004 00000008     ................
    2910:	00001000 00002000 00004000 00008000     ..... ...@......
    2920:	00010000 00020000 00040000 00080000     ................
    2930:	01040404 05041004 15041404 25010804     ...............%
    2940:	1c02ef05 82010204 05063202 03082004     .........2... ..
    2950:	15080908 00001902                       ........

00002958 <_init>:
    2958:	b5f8      	push	{r3, r4, r5, r6, r7, lr}
    295a:	46c0      	nop			; (mov r8, r8)
    295c:	bcf8      	pop	{r3, r4, r5, r6, r7}
    295e:	bc08      	pop	{r3}
    2960:	469e      	mov	lr, r3
    2962:	4770      	bx	lr

00002964 <__init_array_start>:
    2964:	000000b5 	.word	0x000000b5

00002968 <_fini>:
    2968:	b5f8      	push	{r3, r4, r5, r6, r7, lr}
    296a:	46c0      	nop			; (mov r8, r8)
    296c:	bcf8      	pop	{r3, r4, r5, r6, r7}
    296e:	bc08      	pop	{r3}
    2970:	469e      	mov	lr, r3
    2972:	4770      	bx	lr

00002974 <__fini_array_start>:
    2974:	0000008d 	.word	0x0000008d
